
MinimOsd_Extra.elf:     file format elf32-avr


Disassembly of section .text:

00000000 <__vectors>:
       0:	0c 94 02 06 	jmp	0xc04	; 0xc04 <__ctors_end>
       4:	0c 94 2a 06 	jmp	0xc54	; 0xc54 <__bad_interrupt>
       8:	0c 94 2a 06 	jmp	0xc54	; 0xc54 <__bad_interrupt>
       c:	0c 94 88 24 	jmp	0x4910	; 0x4910 <__vector_3>
      10:	0c 94 2a 06 	jmp	0xc54	; 0xc54 <__bad_interrupt>
      14:	0c 94 2a 06 	jmp	0xc54	; 0xc54 <__bad_interrupt>
      18:	0c 94 2a 06 	jmp	0xc54	; 0xc54 <__bad_interrupt>
      1c:	0c 94 2a 06 	jmp	0xc54	; 0xc54 <__bad_interrupt>
      20:	0c 94 2a 06 	jmp	0xc54	; 0xc54 <__bad_interrupt>
      24:	0c 94 2a 06 	jmp	0xc54	; 0xc54 <__bad_interrupt>
      28:	0c 94 2a 06 	jmp	0xc54	; 0xc54 <__bad_interrupt>
      2c:	0c 94 2a 06 	jmp	0xc54	; 0xc54 <__bad_interrupt>
      30:	0c 94 2a 06 	jmp	0xc54	; 0xc54 <__bad_interrupt>
      34:	0c 94 2a 06 	jmp	0xc54	; 0xc54 <__bad_interrupt>
      38:	0c 94 2a 06 	jmp	0xc54	; 0xc54 <__bad_interrupt>
      3c:	0c 94 2a 06 	jmp	0xc54	; 0xc54 <__bad_interrupt>
      40:	0c 94 2a 06 	jmp	0xc54	; 0xc54 <__bad_interrupt>
      44:	0c 94 2a 06 	jmp	0xc54	; 0xc54 <__bad_interrupt>
      48:	0c 94 c4 35 	jmp	0x6b88	; 0x6b88 <__vector_18>
      4c:	0c 94 2a 06 	jmp	0xc54	; 0xc54 <__bad_interrupt>
      50:	0c 94 43 10 	jmp	0x2086	; 0x2086 <__vector_20>
      54:	0c 94 7e 10 	jmp	0x20fc	; 0x20fc <__vector_21>
      58:	0c 94 2a 06 	jmp	0xc54	; 0xc54 <__bad_interrupt>
      5c:	0c 94 2a 06 	jmp	0xc54	; 0xc54 <__bad_interrupt>
      60:	0c 94 2a 06 	jmp	0xc54	; 0xc54 <__bad_interrupt>
      64:	0c 94 2a 06 	jmp	0xc54	; 0xc54 <__bad_interrupt>
      68:	0c 94 2a 06 	jmp	0xc54	; 0xc54 <__bad_interrupt>
      6c:	0c 94 2a 06 	jmp	0xc54	; 0xc54 <__bad_interrupt>
      70:	0c 94 cc 10 	jmp	0x2198	; 0x2198 <__vector_28>
      74:	0c 94 07 11 	jmp	0x220e	; 0x220e <__vector_29>
      78:	0c 94 2a 06 	jmp	0xc54	; 0xc54 <__bad_interrupt>
      7c:	a2 2a       	or	r10, r18
      7e:	a6 2a       	or	r10, r22
      80:	ba 2a       	or	r11, r26
      82:	d4 2a       	or	r13, r20
      84:	ca 2a       	or	r12, r26
      86:	de 2a       	or	r13, r30
      88:	e8 2a       	or	r14, r24
      8a:	f9 2a       	or	r15, r25
      8c:	0f 2b       	or	r16, r31
      8e:	35 2b       	or	r19, r21
      90:	35 2b       	or	r19, r21
      92:	08 4a       	sbci	r16, 0xA8	; 168
      94:	d7 3b       	cpi	r29, 0xB7	; 183
      96:	3b ce       	rjmp	.-906    	; 0xfffffd0e <__eeprom_end+0xff7efd0e>
      98:	01 6e       	ori	r16, 0xE1	; 225
      9a:	84 bc       	out	0x24, r8	; 36
      9c:	bf fd       	.word	0xfdbf	; ????
      9e:	c1 2f       	mov	r28, r17
      a0:	3d 6c       	ori	r19, 0xCD	; 205
      a2:	74 31       	cpi	r23, 0x14	; 20
      a4:	9a bd       	out	0x2a, r25	; 42
      a6:	56 83       	std	Z+6, r21	; 0x06
      a8:	3d da       	rcall	.-2950   	; 0xfffff524 <__eeprom_end+0xff7ef524>
      aa:	3d 00       	.word	0x003d	; ????
      ac:	c7 7f       	andi	r28, 0xF7	; 247
      ae:	11 be       	out	0x31, r1	; 49
      b0:	d9 e4       	ldi	r29, 0x49	; 73
      b2:	bb 4c       	sbci	r27, 0xCB	; 203
      b4:	3e 91       	ld	r19, -X
      b6:	6b aa       	std	Y+51, r6	; 0x33
      b8:	aa be       	out	0x3a, r10	; 58
      ba:	00 00       	nop
      bc:	00 80       	ld	r0, Z
      be:	3f 05       	cpc	r19, r15
      c0:	a8 4c       	sbci	r26, 0xC8	; 200
      c2:	cd b2       	in	r12, 0x1d	; 29
      c4:	d4 4e       	sbci	r29, 0xE4	; 228
      c6:	b9 38       	cpi	r27, 0x89	; 137
      c8:	36 a9       	ldd	r19, Z+54	; 0x36
      ca:	02 0c       	add	r0, r2
      cc:	50 b9       	out	0x00, r21	; 0
      ce:	91 86       	std	Z+9, r9	; 0x09
      d0:	88 08       	sbc	r8, r8
      d2:	3c a6       	std	Y+44, r3	; 0x2c
      d4:	aa aa       	std	Y+50, r10	; 0x32
      d6:	2a be       	out	0x3a, r2	; 58
      d8:	00 00       	nop
      da:	00 80       	ld	r0, Z
      dc:	3f 06       	cpc	r3, r31
      de:	64 ec       	ldi	r22, 0xC4	; 196
      e0:	1b 3c       	cpi	r17, 0xCB	; 203
      e2:	04 bc       	out	0x24, r0	; 36
      e4:	16 3e       	cpi	r17, 0xE6	; 230
      e6:	3b e5       	ldi	r19, 0x5B	; 91
      e8:	b9 3c       	cpi	r27, 0xC9	; 201
      ea:	c9 3c       	cpi	r28, 0xC9	; 201
      ec:	37 c2       	rjmp	.+1134   	; 0x55c <_ZZ18mavlink_parse_charE20mavlink_message_crcs+0xf7>
      ee:	9e 5a       	subi	r25, 0xAE	; 174
      f0:	3d 66       	ori	r19, 0x6D	; 109
      f2:	04 98       	cbi	0x00, 4	; 0
      f4:	08 3e       	cpi	r16, 0xE8	; 232
      f6:	ea 69       	ori	r30, 0x9A	; 154
      f8:	aa aa       	std	Y+50, r10	; 0x32
      fa:	3e 00       	.word	0x003e	; ????
      fc:	00 00       	nop
      fe:	80 3f       	cpi	r24, 0xF0	; 240

00000100 <__trampolines_end>:
     100:	74 69       	ori	r23, 0x94	; 148
     102:	6d 65       	ori	r22, 0x5D	; 93
     104:	3d 25       	eor	r19, r13
     106:	6c 64       	ori	r22, 0x4C	; 76
     108:	0a 00       	.word	0x000a	; ????

0000010a <_ZZN3OSD6updateEvE3__c_0>:
     10a:	3a 20 00                                            : .

0000010d <_ZZN3OSD6updateEvE3__c>:
     10d:	63 6e 74 00                                         cnt.

00000111 <_ZZN3OSD13setBrightnessEvE6levels>:
     111:	03 02 01 00                                         ....

00000115 <_ZZL10pan_togglevE4msgs>:
     115:	53 63 72 65 65 6e 20 30 00                          Screen 0.

0000011e <_ZZL7getDatavE3__c>:
     11e:	70 75 6c 73 65 3d 25 64 20 73 70 3d 25 64 20 73     pulse=%d sp=%d s
     12e:	70 65 65 64 3d 25 6c 64 00                          peed=%ld.

00000137 <_ZZL9print_rffvE3__c>:
     137:	52 46 46 00                                         RFF.

0000013b <_ZZL10font_statevE3__c>:
     13b:	66 6f 6e 74 20 75 70 6c 6f 61 64 69 6e 67 20 00     font uploading .

0000014b <_ZZL10uploadFontvE3__c_0>:
     14b:	46 44 00                                            FD.

0000014e <_ZZL10uploadFontvE3__c>:
     14e:	43 44 00                                            CD.

00000151 <_ZZ4loopE3__c_1>:
     151:	73 74 61 63 6b 20 62 6f 74 74 6f 6d 20 3d 20 25     stack bottom = %
     161:	78 0a 00                                            x..

00000164 <_ZZ4loopE3__c_0>:
     164:	6c 6f 6f 70 20 74 69 6d 65 20 3d 20 25 64 6d 73     loop time = %dms
     174:	20 6c 6f 73 74 20 62 79 74 65 73 3d 25 64 0a 00      lost bytes=%d..

00000184 <_ZZ4loopE3__c>:
     184:	72 65 73 74 61 72 74 20 4d 41 58 21 20 76 73 79     restart MAX! vsy
     194:	6e 63 5f 63 6f 75 6e 74 3d 25 64 0a 00              nc_count=%d..

000001a1 <_ZZ5setupE3__c_8>:
     1a1:	23 73 65 74 75 70 20 64 6f 6e 65 00                 #setup done.

000001ad <_ZZ5setupE8alt_pins>:
     1ad:	10 0e 0f 11                                         ....

000001b1 <_ZZ5setupE3__c_7>:
     1b1:	74 69 6d 65 3d 25 6c 64 0a 00                       time=%ld..

000001bb <_ZZ5setupE3__c_6>:
     1bb:	23 20 73 65 69 00                                   # sei.

000001c1 <_ZZ5setupE3__c_5>:
     1c1:	74 69 6d 65 3d 25 6c 64 0a 00                       time=%ld..

000001cb <_ZZ5setupE3__c_4>:
     1cb:	23 20 75 70 64 61 74 65 00                          # update.

000001d4 <_ZZ5setupE3__c_3>:
     1d4:	74 69 6d 65 3d 25 6c 64 0a 00                       time=%ld..

000001de <_ZZ5setupE3__c_2>:
     1de:	23 20 75 6e 70 6c 75 67 53 6c 61 76 65 73 00        # unplugSlaves.

000001ed <_ZZ5setupE3__c_1>:
     1ed:	74 69 6d 65 3d 25 6c 64 0a 00                       time=%ld..

000001f7 <_ZZ5setupE3__c_0>:
     1f7:	23 31 7a 7a 7a 7a 7a 0a 00                          #1zzzzz..

00000200 <_ZZ5setupE3__c>:
     200:	23 62 6f 6f 74 00                                   #boot.

00000206 <_ZZL8panSetupvE4incs>:
     206:	01 00 0a 00 64 00 e8 03                             ....d...

0000020e <_ZZL8panSetupvE3__c_0>:
     20e:	20 28 4e 54 53 43 29 00                              (NTSC).

00000216 <_ZZL8panSetupvE3__c>:
     216:	20 28 50 41 4c 29 00                                 (PAL).

0000021d <_ZZL16print_all_panelsPK11Panels_listE3__c_0>:
     21d:	ff 70 67 3d 25 75 20 70 73 3d 25 75 00              .pg=%u ps=%u.

0000022a <_ZZL16print_all_panelsPK11Panels_listE3__c>:
     22a:	63 72 63 3d 25 75 20 62 3d 25 6c 64 20 62 6c 3d     crc=%u b=%ld bl=
     23a:	25 75 00                                            %u.

0000023d <_ZZL8panFdata5PointE4fmt0>:
     23d:	25 37 2e 32 66 00                                   %7.2f.

00000243 <_ZZL8panFdata5PointE4fmt1>:
     243:	25 36 2e 31 66 00                                   %6.1f.

00000249 <_ZZL8panFdata5PointE4fmt6>:
     249:	91 25 37 2e 32 66 00                                .%7.2f.

00000250 <_ZZL8panFdata5PointE4fmt7>:
     250:	a1 25 37 2e 32 66 00                                .%7.2f.

00000257 <_ZZL8panFdata5PointE2fd>:
     257:	3d 02 0b 68 3d 06 00 43 02 8f 68 f2 06 00 43 02     =..h=..C..h...C.
     267:	14 73 35 06 00 43 02 1d 73 2d 06 00 43 02 12 68     .s5..C..s-..C..h
     277:	31 06 00 49 02 90 76 25 06 00 50 02 a0 76 21 06     1..I..v%..P..v!.
     287:	00 43 02 bd 61 29 06 00 43 02 57 77 1d 06 00 43     .C..a)..C.Ww...C
     297:	02 01 66 ee 06 00                                   ..f...

0000029d <_ZZL15panWaitMAVBeatsvE3__c_2>:
     29d:	ff 73 74 61 63 6b 20 62 6f 74 74 6f 6d 20 3d 20     .stack bottom = 
     2ad:	25 78 00                                            %x.

000002b0 <_ZZL15panWaitMAVBeatsvE3__c_1>:
     2b0:	ff 70 61 63 6b 65 74 73 20 67 6f 74 3d 25 75 20     .packets got=%u 
     2c0:	73 6b 69 70 3d 25 75 00                             skip=%u.

000002c8 <_ZZL15panWaitMAVBeatsvE3__c_0>:
     2c8:	6c 6f 6f 70 20 74 69 6d 65 3d 25 64 6d 73 20 63     loop time=%dms c
     2d8:	72 63 20 64 72 6f 70 73 3d 25 75 ff 20 62 79 74     rc drops=%u. byt
     2e8:	65 73 3d 25 6c 64 20 6c 6f 73 74 3d 25 75 00        es=%ld lost=%u.

000002f7 <_ZZL15panWaitMAVBeatsvE3__c>:
     2f7:	4e 6f 20 69 6e 70 75 74 20 64 61 74 61 21 20 25     No input data! %
     307:	75 ff 00                                            u..

0000030a <_ZZL10panHorizon5PointE3__c>:
     30a:	b8 b9 00                                            ...

0000030d <_ZZL8panPitch5PointE3__c>:
     30d:	25 34 69 05 07 00                                   %4i...

00000313 <_ZZL7panRoll5PointE3__c>:
     313:	25 34 69 05 06 00                                   %4i...

00000319 <_ZZL6panGPS5PointE3__c_1>:
     319:	6f 76 65 72 6c 6f 61 64 00                          overload.

00000322 <_ZZL6panGPS5PointE3__c_0>:
     322:	66 72 6f 7a 65 6e 00                                frozen.

00000329 <_ZZL6panGPS5PointE3__c>:
     329:	53 74 72 65 61 6d 00                                Stream.

00000330 <_ZZL6panCOG5PointE3__c>:
     330:	25 34 69 05 00                                      %4i..

00000335 <_ZZL7panRose5PointE3__c_2>:
     335:	ff 20 ce ce ce ce 60 ce ce ce ce 00                 . ....`.....

00000341 <_ZZL7panRose5PointE3__c_1>:
     341:	ff 20 20 20 24 cb 7c 40 cb 24 00                    .   $.|@.$.

0000034c <_ZZL7panRose5PointE8buf_Rule>:
     34c:	82 80 81 80 81 80 84 80 81 80 81 80 83 80 81 80     ................
     35c:	81 80 85 80 81 80 81 80                             ........

00000364 <_ZZL7panRose5PointE3__c_0>:
     364:	20 c8 c8 c8 c8 7e c8 c8 c8 c8 20 ff 00               ....~.... ..

00000371 <_ZZL7panRose5PointE3__c>:
     371:	20 20 20 24 cb b8 b9 cb 24 20 20 20 ff 00              $....$   ..

0000037f <_ZZL8panWPDis5PointE3__c>:
     37f:	20 58 65 00                                          Xe.

00000383 <_ZZL12panWindSpeed5PointE3__c>:
     383:	25 32 2e 30 66 00                                   %2.0f.

00000389 <_ZZL8panClimb5PointE6f_4_0f>:
     389:	25 20 34 2e 30 66 00                                % 4.0f.

00000390 <_ZZL8panClimb5PointE3__c_0>:
     390:	25 20 34 2e 31 66 00                                % 4.1f.

00000397 <_ZZL8panClimb5PointE3__c>:
     397:	25 20 34 2e 32 66 00                                % 4.2f.

0000039e <_ZZL7panTune5PointE4fmt0>:
     39e:	52 25 33 2e 30 66 05 00                             R%3.0f..

000003a6 <_ZZL7panTune5PointE4fmt1>:
     3a6:	50 25 33 2e 30 66 05 00                             P%3.0f..

000003ae <_ZZL7panTune5PointE4fmt2>:
     3ae:	48 25 33 2e 30 66 05 00                             H%3.0f..

000003b6 <_ZZL7panTune5PointE4fmt3>:
     3b6:	42 25 35 2e 31 66 05 00                             B%5.1f..

000003be <_ZZL7panTune5PointE4fmt4>:
     3be:	45 25 35 2e 31 66 00                                E%5.1f.

000003c5 <_ZZL7panTune5PointE4fmt5>:
     3c5:	45 25 34 2e 30 66 6d 00                             E%4.0fm.

000003cd <_ZZL7panTune5PointE4fmt6>:
     3cd:	73 45 25 35 2e 31 66 00                             sE%5.1f.

000003d5 <_ZZL7panTune5PointE2fd>:
     3d5:	9e 03 6e 69 ec 06 00 a6 03 6e 69 ea 06 00 ae 03     ..ni.....ni.....
     3e5:	6e 69 e8 06 00 b6 03 54 69 e6 06 00 be 03 41 68     ni.....Ti.....Ah
     3f5:	df 06 00 c5 03 58 69 d1 06 00 cd 03 41 73 db 06     .....Xi.....As..
	...

00000406 <_ZZL6panEff5PointE3__c>:
     406:	20 90 91 00                                          ...

0000040a <_ZZL7panTemp5PointE3__c>:
     40a:	25 35 2e 31 66 00                                   %5.1f.

00000410 <_ZZL5panCh5PointE3__c>:
     410:	43 25 64 25 35 69 ff 00                             C%d%5i..

00000418 <_ZZL8panScale5PointE3__c>:
     418:	25 69 00                                            %i.

0000041b <_ZZL7panDate5PointE3__c>:
     41b:	2e 25 34 64 00                                      .%4d.

00000420 <_ZZL7panDate5PointE11daysInMonth>:
     420:	1f 1c 1f 1e 1f 1e 1f 1f 1e 1f 1e 1f                 ............

0000042c <_ZZL9printTimejhhE6f_02in>:
     42c:	25 30 32 69 ff 00                                   %02i..

00000432 <_ZZL9printTimejhhE3__c>:
     432:	3a 25 30 32 69 3a 00                                :%02i:.

00000439 <_ZZL7panVibe5PointE3__c>:
     439:	20 20 78 20 20 79 20 20 7a ff 00                      x  y  z..

00000444 <_ZZL8panVario5PointE3__c_0>:
     444:	20 b3 ff 20 b3 ff 20 c5 ff 20 b3 ff 20 b3 00         .. .. .. .. ..

00000453 <_ZZL8panVario5PointE3__c>:
     453:	b2 ff b2 ff c6 ff b2 ff b2 00                       ..........

0000045d <_ZZ10radar_charvE3arr>:
     45d:	b0 b1 b4 b5 b6 b7 7b 7d                             ......{}

00000465 <_ZZ18mavlink_parse_charE20mavlink_message_crcs>:
     465:	32 7c 89 00 ed d9 68 77 00 00 00 59 00 00 00 00     2|....hw...Y....
     475:	00 00 00 00 d6 9f dc a8 18 17 aa 90 43 73 27 f6     ............Cs'.
     485:	b9 68 ed f4 de d4 09 fe e6 1c 1c 84 dd e8 0b 99     .h..............
     495:	29 27 d6 df 8d 21 0f 03 64 18 ef ee 1e 99 b7 82     )'...!..d.......
     4a5:	52 76 94 15 00 34 7c 00 00 26 14 9e 98 8f 00 00     Rv...4|..&......
     4b5:	00 6a 31 16 8f 8c 05 96 00 e7 b7 3f 36 00 00 00     .j1........?6...
     4c5:	00 00 00 00 af 66 9e d0 38 5d 8a 6c 20 b9 54 22     .....f..8].l .T"
     4d5:	00 7c ed 04 4c 80 38 74 86 ed cb fa 57 cb dc 19     .|..L.8t....W...
     4e5:	e2 00 1d df 55 06 e5 cb 01 c3 00 00 00 00 00 00     ....U...........
     4f5:	00 00 00 9a b2 00 86 db d0 bc 54 16 13 15 86 00     ..........T.....
     505:	4e 44 bd 7f 6f 15 15 90 01 00 00 b5 00 00 00 00     ND..o...........
     515:	00 00 2f 00 00 ae e5 00 00 00 00 00 00 00 00 00     ../.............
     525:	00 47 00 00 00 00 00 00 00 00 00 00 00 00 00 00     .G..............
	...
     555:	00 5a 00 00 00 00 00 00 08 cc 31 aa 2c 53 2e 00     .Z........1.,S..

00000565 <_ZZ16mavlink_one_bytecE6delays>:
     565:	02 06 0a 0f 14 1e 2d 3c                             ......-<

0000056d <_ZZ21request_mavlink_ratesvE10MAVStreams>:
     56d:	06 01 02 02 03 05 0a 0a 0b 02 0c 01                 ............

00000579 <_ZZ4logovE3__c_0>:
     579:	42 61 64 20 43 6f 6e 66 69 67 3a 20 25 64 20 6d     Bad Config: %d m
     589:	79 20 37 39 00                                      y 79.

0000058e <_ZZ4logovE3__c>:
     58e:	4d 69 6e 69 6d 4f 53 44 2d 45 78 74 72 61 20 4d     MinimOSD-Extra M
     59e:	41 56 4c 69 6e 6b 20 32 2e 34 ff 75 6e 69 20 72     AVLink 2.4.uni r
     5ae:	39 33 36 20 44 56 ff 00                             936 DV..

000005b6 <_ZL11panels_list>:
     5b6:	15 a8 1e 00 01 b5 0b 00 02 ac 0b 00 03 b7 19 bc     ................
     5c6:	84 7f 19 26 05 74 0b 00 07 25 13 00 34 0d 10 03     ...&.t...%..4...
     5d6:	35 07 10 04 18 be 0b 00 06 ed 18 00 08 ca 12 00     5...............
     5e6:	09 96 1e 00 25 4e 16 00 8b 30 15 0b 0a 5f 0b 00     ....%N...0..._..
     5f6:	19 9c 0f 00 0d 7c 18 5c 11 e9 17 11 16 48 15 12     .....|.\.....H..
     606:	12 b7 15 14 17 a7 15 13 13 24 0c 02 14 1e 0b 7f     .........$......
     616:	0f e0 19 bd 2e 12 0d 57 1b 15 1a 1d 9c 36 14 15     .......W.....6..
     626:	1d 48 16 00 0e 61 1a 09 1e cc 1a 00 21 ab 0c 00     .H...a......!...
     636:	20 2a 10 00 22 65 15 8f 24 91 17 1f 2b fd 0c 1f      *.."e..$...+...
     646:	2c fc 13 00 2d d3 13 00 2f b3 13 00 a7 d9 11 00     ,...-.../.......
     656:	a8 d4 11 00 a9 cf 11 00 aa ca 11 00 1f 35 0f 00     .............5..
     666:	26 b9 0e 00 30 8d 0a 00 31 65 0c 00 33 50 0a 00     &...0...1e..3P..
     676:	23 a3 12 00 32 37 12 00 9a 83 16 00 00 00 00 00     #...27..........

00000686 <_ZL7screens>:
     686:	b8 06 0c 00 00 9a 06 05 b2 0e 70 0a 09 de 11 00     ..........p.....
     696:	00 00 00 00                                         ....

0000069a <_ZL7params2>:
     69a:	b0 07 68 00 00 00 96 07 66 8b 04 25 a3 07 66 8f     ..h.....f..%..f.
     6aa:	04 25 7a 07 66 93 04 25 88 07 66 97 04 25           .%z.f..%..f..%

000006b8 <_ZL7params1>:
     6b8:	63 08 00 00 00 00 53 08 42 62 04 00 44 08 42 9b     c.....S.Bb..D.B.
     6c8:	04 00 36 08 62 61 04 10 24 08 62 60 04 10 13 08     ..6.ba..$.b`....
     6d8:	62 68 04 10 06 08 62 69 04 10 f6 07 00 00 00 00     bh....bi........
     6e8:	e8 07 62 a0 04 11 df 07 62 5f 04 12 cf 07 5a 9d     ..b.....b_....Z.
     6f8:	04 13 c1 07 7a 9c 04 14                             ....z...

00000700 <_ZL6s_fmts>:
     700:	30 07 2b 07 26 07                                   0.+.&.

00000706 <_ZL7min_max>:
     706:	00 00 ff 00 01 00 04 00 00 00 03 00 e1 ff 1f 00     ................
     716:	f1 ff 0f 00 fc ff 04 00 c0 e0 40 1f 9c ff 64 00     ..........@...d.

00000726 <_ZL7f_float>:
     726:	25 2e 33 66 00                                      %.3f.

0000072b <_ZL5f_int>:
     72b:	25 2e 30 66 00                                      %.0f.

00000730 <_ZL6f_batt>:
     730:	25 33 2e 31 66 76 00                                %3.1fv.

00000737 <_ZL11n_k_sensor4>:
     737:	34 20 28 52 53 53 49 29 20 4b 00                    4 (RSSI) K.

00000742 <_ZL11n_k_sensor3>:
     742:	33 20 28 43 75 72 72 65 6e 74 29 20 4b 00           3 (Current) K.

00000750 <_ZL11n_k_sensor2>:
     750:	32 20 28 56 32 29 20 4b 00                          2 (V2) K.

00000759 <_ZL11n_a_sensor1>:
     759:	20 20 20 20 20 20 20 41 00                                 A.

00000762 <_ZL11n_k_sensor1>:
     762:	31 20 28 56 31 29 20 4b 00                          1 (V1) K.

0000076b <_ZL9n_sensors>:
     76b:	20 20 20 50 69 6e 20 53 65 6e 73 6f 72 73 00           Pin Sensors.

0000077a <_ZL12n_k_RollNTSC>:
     77a:	52 6f 6c 6c 20 20 69 6e 20 4e 54 53 43 00           Roll  in NTSC.

00000788 <_ZL13n_k_PitchNTSC>:
     788:	50 69 74 63 68 20 69 6e 20 4e 54 53 43 00           Pitch in NTSC.

00000796 <_ZL11n_k_RollPAL>:
     796:	52 6f 6c 6c 20 20 69 6e 20 50 41 4c 00              Roll  in PAL.

000007a3 <_ZL12n_k_PitchPAL>:
     7a3:	50 69 74 63 68 20 69 6e 20 50 41 4c 00              Pitch in PAL.

000007b0 <_ZL9n_horizon>:
     7b0:	20 20 48 6f 72 69 7a 6f 6e 20 61 6e 67 6c 65 73       Horizon angles
	...

000007c1 <_ZL6n_vert>:
     7c1:	56 65 72 74 69 63 61 6c 20 6f 66 66 73 00           Vertical offs.

000007cf <_ZL7n_horiz>:
     7cf:	48 6f 72 69 7a 6f 6e 74 61 6c 20 6f 66 66 73 00     Horizontal offs.

000007df <_ZL7n_contr>:
     7df:	43 6f 6e 74 72 61 73 74 00                          Contrast.

000007e8 <_ZL5n_scr>:
     7e8:	53 63 72 65 65 6e 73 20 43 6f 75 6e 74 00           Screens Count.

000007f6 <_ZL8n_screen>:
     7f6:	20 20 53 63 72 65 65 6e 20 70 61 72 61 6d 73 00       Screen params.

00000806 <_ZL6n_rssi>:
     806:	52 53 53 49 20 77 61 72 6e 69 6e 67 00              RSSI warning.

00000813 <_ZL8n_charge>:
     813:	42 61 74 74 20 63 68 61 72 67 65 20 77 61 72 6e     Batt charge warn
	...

00000824 <_ZL8n_oversp>:
     824:	4f 76 65 72 73 70 65 65 64 20 77 61 72 6e 69 6e     Overspeed warnin
     834:	67 00                                               g.

00000836 <_ZL7n_stall>:
     836:	53 74 61 6c 6c 20 77 61 72 6e 69 6e 67 00           Stall warning.

00000844 <_ZL7n_battB>:
     844:	42 61 74 74 20 32 20 77 61 72 6e 69 6e 67 00        Batt 2 warning.

00000853 <_ZL6n_batt>:
     853:	42 61 74 74 65 72 79 20 77 61 72 6e 69 6e 67 00     Battery warning.

00000863 <_ZL6n_sets>:
     863:	20 20 20 4f 53 44 20 73 65 74 75 70 00                 OSD setup.

00000870 <_ZL5f_02i>:
     870:	2e 25 30 32 64 00                                   .%02d.

00000876 <_ZL3fci>:
     876:	43 25 69 20 00                                      C%i .

0000087b <_ZL15mode_aq_strings>:
     87b:	97 08 f0 08 69 09 4c 09 38 09 92 08 38 09 38 09     ....i.L.8...8.8.
     88b:	8d 08                                               ..

0000088d <_ZL8aq_mode8>:
     88d:	69 6e 69 74 00                                      init.

00000892 <_ZL8aq_mode5>:
     892:	6d 69 73 73 00                                      miss.

00000897 <_ZL8aq_mode0>:
     897:	61 72 6d 00                                         arm.

0000089b <_ZL14mode_p_strings>:
     89b:	f0 08 51 09 73 09 eb 08 6e 09 e6 08 e1 08 dc 08     ..Q.s...n.......
     8ab:	d7 08 38 09 64 09 56 09 5a 09 38 09 38 09 5f 09     ..8.d.V.Z.8.8._.
     8bb:	d2 08 cd 08 c8 08 c3 08                             ........

000008c3 <_ZL8p_mode19>:
     8c3:	71 6c 6f 69 00                                      qloi.

000008c8 <_ZL8p_mode18>:
     8c8:	71 68 6f 76 00                                      qhov.

000008cd <_ZL8p_mode17>:
     8cd:	71 73 74 62 00                                      qstb.

000008d2 <_ZL8p_mode16>:
     8d2:	69 6e 69 74 00                                      init.

000008d7 <_ZL8p_mode08>:
     8d7:	61 74 75 6e 00                                      atun.

000008dc <_ZL8p_mode07>:
     8dc:	63 72 75 7a 00                                      cruz.

000008e1 <_ZL8p_mode06>:
     8e1:	66 62 77 62 00                                      fbwb.

000008e6 <_ZL8p_mode05>:
     8e6:	66 62 77 61 00                                      fbwa.

000008eb <_ZL8p_mode03>:
     8eb:	74 72 61 69 00                                      trai.

000008f0 <_ZL8p_mode00>:
     8f0:	6d 61 6e 75 00                                      manu.

000008f5 <_ZL14mode_c_strings>:
     8f5:	73 09 6e 09 69 09 64 09 5f 09 5a 09 56 09 51 09     s.n.i.d._.Z.V.Q.
     905:	4c 09 47 09 42 09 3d 09 38 09 33 09 2e 09 29 09     L.G.B.=.8.3...).
     915:	24 09 20 09 1b 09                                   $. ...

0000091b <_ZL8s_mode18>:
     91b:	74 68 72 77 00                                      thrw.

00000920 <_ZL8s_mode17>:
     920:	62 72 6b 00                                         brk.

00000924 <_ZL8s_mode16>:
     924:	68 6f 6c 64 00                                      hold.

00000929 <_ZL8s_mode15>:
     929:	74 75 6e 65 00                                      tune.

0000092e <_ZL8s_mode14>:
     92e:	66 6c 69 70 00                                      flip.

00000933 <_ZL8s_mode13>:
     933:	73 70 72 74 00                                      sprt.

00000938 <_ZL8s_mode_n>:
     938:	6d 5f 25 64 00                                      m_%d.

0000093d <_ZL8s_mode11>:
     93d:	64 72 69 66 00                                      drif.

00000942 <_ZL8s_mode10>:
     942:	6f 66 6c 6f 00                                      oflo.

00000947 <_ZL8s_mode09>:
     947:	6c 61 6e 64 00                                      land.

0000094c <_ZL8s_mode08>:
     94c:	70 6f 73 68 00                                      posh.

00000951 <_ZL8s_mode07>:
     951:	63 69 72 63 00                                      circ.

00000956 <_ZL8s_mode06>:
     956:	72 74 6c 00                                         rtl.

0000095a <_ZL8s_mode05>:
     95a:	6c 6f 69 74 00                                      loit.

0000095f <_ZL8s_mode04>:
     95f:	67 75 69 64 00                                      guid.

00000964 <_ZL8s_mode03>:
     964:	61 75 74 6f 00                                      auto.

00000969 <_ZL8s_mode02>:
     969:	61 6c 74 68 00                                      alth.

0000096e <_ZL8s_mode01>:
     96e:	61 63 72 6f 00                                      acro.

00000973 <_ZL8s_mode00>:
     973:	73 74 61 62 00                                      stab.

00000978 <_ZL8gps_fmtF>:
     978:	86 09 80 09                                         ....

0000097c <_ZL7gps_fmt>:
     97c:	93 09 8d 09                                         ....

00000980 <_ZL6gps_f5>:
     980:	25 39 2e 35 66 00                                   %9.5f.

00000986 <_ZL6gps_f4>:
     986:	25 31 30 2e 36 66 00                                %10.6f.

0000098d <_ZL6gps_f1>:
     98d:	25 30 35 6c 64 00                                   %05ld.

00000993 <_ZL6gps_f0>:
     993:	25 30 36 6c 64 00                                   %06ld.

00000999 <_ZL8warn_str>:
     999:	14 0a 0b 0a 00 0a f3 09 e8 09 db 09 cf 09 c4 09     ................
     9a9:	b8 09 ad 09                                         ....

000009ad <_ZL3w10>:
     9ad:	46 65 6e 63 65 20 46 61 72 21 00                    Fence Far!.

000009b8 <_ZL2w9>:
     9b8:	46 65 6e 63 65 20 48 69 67 68 21 00                 Fence High!.

000009c4 <_ZL2w8>:
     9c4:	46 65 6e 63 65 20 4c 6f 77 21 00                    Fence Low!.

000009cf <_ZL2w7>:
     9cf:	42 61 74 74 20 42 20 6c 6f 77 21 00                 Batt B low!.

000009db <_ZL2w6>:
     9db:	48 69 67 68 20 56 53 70 65 65 64 21 00              High VSpeed!.

000009e8 <_ZL2w5>:
     9e8:	20 4c 6f 77 20 52 73 73 69 21 00                     Low Rssi!.

000009f3 <_ZL2w4>:
     9f3:	42 61 74 74 65 72 79 20 4c 6f 77 21 00              Battery Low!.

00000a00 <_ZL2w3>:
     a00:	4f 76 65 72 53 70 65 65 64 21 00                    OverSpeed!.

00000a0b <_ZL2w2>:
     a0b:	20 20 53 74 61 6c 6c 21 00                            Stall!.

00000a14 <_ZL2w1>:
     a14:	4e 6f 20 47 50 53 20 66 69 78 21 00                 No GPS fix!.

00000a20 <_ZL5f4_0f>:
     a20:	25 34 2e 30 66 00                                   %4.0f.

00000a26 <_ZL5f4_1f>:
     a26:	25 34 2e 31 66 00                                   %4.1f.

00000a2c <_ZL5f4_2f>:
     a2c:	25 34 2e 32 66 00                                   %4.2f.

00000a32 <_ZL5f5_2f>:
     a32:	25 35 2e 32 66 00                                   %5.2f.

00000a38 <_ZL3f2i>:
     a38:	25 32 69 00                                         %2i.

00000a3c <_ZL3f3i>:
     a3c:	25 33 69 00                                         %3i.

00000a40 <_ZL3f4i>:
     a40:	25 34 69 00                                         %4i.

00000a44 <_ZL5f3_0f>:
     a44:	25 33 2e 30 66 00                                   %3.0f.

00000a4a <_ZL5imper>:
     a4a:	52 b8 0e 40 85 eb 51 40 19 66 bb 00 12 80 0c 1c     R..@..Q@.f......
     a5a:	a0 14 1e                                            ...

00000a5d <_ZL4metr>:
     a5d:	66 66 66 40 00 00 80 3f 10 0c ba 00 0a 00 00 1b     fff@...?........
     a6d:	e8 03 1a                                            ...

00000a70 <_ZL7params3>:
     a70:	6b 07 00 00 00 00 62 07 73 80 02 25 59 07 73 84     k.....b.s..%Y.s.
     a80:	02 27 50 07 73 00 00 25 59 07 73 00 00 27 42 07     .'P.s..%Y.s..'B.
     a90:	73 00 00 26 59 07 73 00 00 27 37 07 73 00 00 26     s..&Y.s..'7.s..&
     aa0:	59 07 73 00 00 27                                   Y.s..'

00000aa6 <digital_pin_to_timer_PGM>:
     aa6:	00 00 00 08 00 02 01 00 00 03 04 07 00 00 00 00     ................
     ab6:	00 00 00 00                                         ....

00000aba <digital_pin_to_bit_mask_PGM>:
     aba:	01 02 04 08 10 20 40 80 01 02 04 08 10 20 01 02     ..... @...... ..
     aca:	04 08 10 20                                         ... 

00000ace <digital_pin_to_port_PGM>:
     ace:	04 04 04 04 04 04 04 04 02 02 02 02 02 02 03 03     ................
     ade:	03 03 03 03                                         ....

00000ae2 <port_to_input_PGM>:
     ae2:	00 00 00 00 23 00 26 00 29 00                       ....#.&.).

00000aec <port_to_output_PGM>:
     aec:	00 00 00 00 25 00 28 00 2b 00                       ....%.(.+.

00000af6 <port_to_mode_PGM>:
     af6:	00 00 00 00 24 00 27 00 2a 00                       ....$.'.*.

00000b00 <_ZZN12BetterStream8_vprintfEhPKcPvE3__c_0>:
     b00:	6e 61 6e 00                                         nan.

00000b04 <_ZZN12BetterStream8_vprintfEhPKcPvE3__c>:
     b04:	69 6e 66 00 00 40 7a 10 f3 5a 00 a0 72 4e 18 09     inf..@z..Z..rN..
     b14:	00 10 a5 d4 e8 00 00 e8 76 48 17 00 00 e4 0b 54     ........vH.....T
     b24:	02 00 00 ca 9a 3b 00 00 00 e1 f5 05 00 00 80 96     .....;..........
     b34:	98 00 00 00 40 42 0f 00 00 00 a0 86 01 00 00 00     ....@B..........
     b44:	10 27 00 00 00 00 e8 03 00 00 00 00 64 00 00 00     .'..........d...
     b54:	00 00 0a 00 00 00 00 00 01 00 00 00 00 00 2c 76     ..............,v
     b64:	d8 88 dc 67 4f 08 23 df c1 df ae 59 e1 b1 b7 96     ...gO.#....Y....
     b74:	e5 e3 e4 53 c6 3a e6 51 99 76 96 e8 e6 c2 84 26     ...S.:.Q.v.....&
     b84:	eb 89 8c 9b 62 ed 40 7c 6f fc ef bc 9c 9f 40 f2     ....b.@|o.....@.
     b94:	ba a5 6f a5 f4 90 05 5a 2a f7 5c 93 6b 6c f9 67     ..o....Z*.\.kl.g
     ba4:	6d c1 1b fc e0 e4 0d 47 fe f5 20 e6 b5 00 d0 ed     m......G.. .....
     bb4:	90 2e 03 00 94 35 77 05 00 80 84 1e 08 00 00 20     .....5w........ 
     bc4:	4e 0a 00 00 00 c8 0c 33 33 33 33 0f 98 6e 12 83     N......3333..n..
     bd4:	11 41 ef 8d 21 14 89 3b e6 55 16 cf fe e6 db 18     .A..!..;.U......
     be4:	d1 84 4b 38 1b f7 7c 1d 90 1d a4 bb e4 24 20 32     ..K8..|......$ 2
     bf4:	84 72 5e 22 81 00 c9 f1 24 ec a1 e5 3d 27           .r^"....$...='

00000c02 <__ctors_start>:
     c02:	69 27       	eor	r22, r25

00000c04 <__ctors_end>:
     c04:	11 24       	eor	r1, r1
     c06:	1f be       	out	0x3f, r1	; 63
     c08:	cf ef       	ldi	r28, 0xFF	; 255
     c0a:	d0 e1       	ldi	r29, 0x10	; 16
     c0c:	de bf       	out	0x3e, r29	; 62
     c0e:	cd bf       	out	0x3d, r28	; 61

00000c10 <__do_copy_data>:
     c10:	11 e0       	ldi	r17, 0x01	; 1
     c12:	a0 e0       	ldi	r26, 0x00	; 0
     c14:	b1 e0       	ldi	r27, 0x01	; 1
     c16:	e0 e7       	ldi	r30, 0x70	; 112
     c18:	f9 e8       	ldi	r31, 0x89	; 137
     c1a:	02 c0       	rjmp	.+4      	; 0xc20 <__do_copy_data+0x10>
     c1c:	05 90       	lpm	r0, Z+
     c1e:	0d 92       	st	X+, r0
     c20:	a4 35       	cpi	r26, 0x54	; 84
     c22:	b1 07       	cpc	r27, r17
     c24:	d9 f7       	brne	.-10     	; 0xc1c <__do_copy_data+0xc>

00000c26 <__do_clear_bss>:
     c26:	27 e0       	ldi	r18, 0x07	; 7
     c28:	a4 e5       	ldi	r26, 0x54	; 84
     c2a:	b1 e0       	ldi	r27, 0x01	; 1
     c2c:	01 c0       	rjmp	.+2      	; 0xc30 <.do_clear_bss_start>

00000c2e <.do_clear_bss_loop>:
     c2e:	1d 92       	st	X+, r1

00000c30 <.do_clear_bss_start>:
     c30:	af 32       	cpi	r26, 0x2F	; 47
     c32:	b2 07       	cpc	r27, r18
     c34:	e1 f7       	brne	.-8      	; 0xc2e <.do_clear_bss_loop>

00000c36 <__do_global_ctors>:
     c36:	16 e0       	ldi	r17, 0x06	; 6
     c38:	c2 e0       	ldi	r28, 0x02	; 2
     c3a:	d6 e0       	ldi	r29, 0x06	; 6
     c3c:	04 c0       	rjmp	.+8      	; 0xc46 <__do_global_ctors+0x10>
     c3e:	21 97       	sbiw	r28, 0x01	; 1
     c40:	fe 01       	movw	r30, r28
     c42:	0e 94 f5 43 	call	0x87ea	; 0x87ea <__tablejump2__>
     c46:	c1 30       	cpi	r28, 0x01	; 1
     c48:	d1 07       	cpc	r29, r17
     c4a:	c9 f7       	brne	.-14     	; 0xc3e <__do_global_ctors+0x8>
     c4c:	0e 94 6c 38 	call	0x70d8	; 0x70d8 <main>
     c50:	0c 94 9e 3f 	jmp	0x7f3c	; 0x7f3c <exit>

00000c54 <__bad_interrupt>:
     c54:	0c 94 00 00 	jmp	0	; 0x0 <__vectors>

00000c58 <countPulseASM>:
     c58:	cf 92       	push	r12
     c5a:	df 92       	push	r13
     c5c:	ef 92       	push	r14
     c5e:	ff 92       	push	r15
     c60:	0f 93       	push	r16
     c62:	1f 93       	push	r17
     c64:	e8 2f       	mov	r30, r24
     c66:	f9 2f       	mov	r31, r25
     c68:	05 c0       	rjmp	.+10     	; 0xc74 <countPulseASM+0x1c>
     c6a:	01 50       	subi	r16, 0x01	; 1
     c6c:	11 09       	sbc	r17, r1
     c6e:	21 09       	sbc	r18, r1
     c70:	31 09       	sbc	r19, r1
     c72:	61 f1       	breq	.+88     	; 0xccc <countPulseASM+0x74>
     c74:	90 81       	ld	r25, Z
     c76:	96 23       	and	r25, r22
     c78:	94 17       	cp	r25, r20
     c7a:	b9 f3       	breq	.-18     	; 0xc6a <countPulseASM+0x12>
     c7c:	05 c0       	rjmp	.+10     	; 0xc88 <countPulseASM+0x30>
     c7e:	01 50       	subi	r16, 0x01	; 1
     c80:	11 09       	sbc	r17, r1
     c82:	21 09       	sbc	r18, r1
     c84:	31 09       	sbc	r19, r1
     c86:	11 f1       	breq	.+68     	; 0xccc <countPulseASM+0x74>
     c88:	90 81       	ld	r25, Z
     c8a:	96 23       	and	r25, r22
     c8c:	94 13       	cpse	r25, r20
     c8e:	f7 cf       	rjmp	.-18     	; 0xc7e <countPulseASM+0x26>
     c90:	c1 2c       	mov	r12, r1
     c92:	d1 2c       	mov	r13, r1
     c94:	e1 2c       	mov	r14, r1
     c96:	f1 2c       	mov	r15, r1
     c98:	0a c0       	rjmp	.+20     	; 0xcae <countPulseASM+0x56>
     c9a:	8f ef       	ldi	r24, 0xFF	; 255
     c9c:	c8 1a       	sub	r12, r24
     c9e:	d8 0a       	sbc	r13, r24
     ca0:	e8 0a       	sbc	r14, r24
     ca2:	f8 0a       	sbc	r15, r24
     ca4:	0c 15       	cp	r16, r12
     ca6:	1d 05       	cpc	r17, r13
     ca8:	2e 05       	cpc	r18, r14
     caa:	3f 05       	cpc	r19, r15
     cac:	79 f0       	breq	.+30     	; 0xccc <countPulseASM+0x74>
     cae:	80 81       	ld	r24, Z
     cb0:	86 23       	and	r24, r22
     cb2:	84 17       	cp	r24, r20
     cb4:	91 f3       	breq	.-28     	; 0xc9a <countPulseASM+0x42>
     cb6:	6c 2d       	mov	r22, r12
     cb8:	7d 2d       	mov	r23, r13
     cba:	8e 2d       	mov	r24, r14
     cbc:	9f 2d       	mov	r25, r15
     cbe:	1f 91       	pop	r17
     cc0:	0f 91       	pop	r16
     cc2:	ff 90       	pop	r15
     cc4:	ef 90       	pop	r14
     cc6:	df 90       	pop	r13
     cc8:	cf 90       	pop	r12
     cca:	08 95       	ret
     ccc:	60 e0       	ldi	r22, 0x00	; 0
     cce:	70 e0       	ldi	r23, 0x00	; 0
     cd0:	80 e0       	ldi	r24, 0x00	; 0
     cd2:	90 e0       	ldi	r25, 0x00	; 0
     cd4:	1f 91       	pop	r17
     cd6:	0f 91       	pop	r16
     cd8:	ff 90       	pop	r15
     cda:	ef 90       	pop	r14
     cdc:	df 90       	pop	r13
     cde:	cf 90       	pop	r12
     ce0:	08 95       	ret

00000ce2 <__ultoa_invert>:
     ce2:	fa 01       	movw	r30, r20
     ce4:	aa 27       	eor	r26, r26
     ce6:	28 30       	cpi	r18, 0x08	; 8
     ce8:	51 f1       	breq	.+84     	; 0xd3e <__ultoa_invert+0x5c>
     cea:	20 31       	cpi	r18, 0x10	; 16
     cec:	81 f1       	breq	.+96     	; 0xd4e <__ultoa_invert+0x6c>
     cee:	e8 94       	clt
     cf0:	6f 93       	push	r22
     cf2:	6e 7f       	andi	r22, 0xFE	; 254
     cf4:	6e 5f       	subi	r22, 0xFE	; 254
     cf6:	7f 4f       	sbci	r23, 0xFF	; 255
     cf8:	8f 4f       	sbci	r24, 0xFF	; 255
     cfa:	9f 4f       	sbci	r25, 0xFF	; 255
     cfc:	af 4f       	sbci	r26, 0xFF	; 255
     cfe:	b1 e0       	ldi	r27, 0x01	; 1
     d00:	3e d0       	rcall	.+124    	; 0xd7e <__ultoa_invert+0x9c>
     d02:	b4 e0       	ldi	r27, 0x04	; 4
     d04:	3c d0       	rcall	.+120    	; 0xd7e <__ultoa_invert+0x9c>
     d06:	67 0f       	add	r22, r23
     d08:	78 1f       	adc	r23, r24
     d0a:	89 1f       	adc	r24, r25
     d0c:	9a 1f       	adc	r25, r26
     d0e:	a1 1d       	adc	r26, r1
     d10:	68 0f       	add	r22, r24
     d12:	79 1f       	adc	r23, r25
     d14:	8a 1f       	adc	r24, r26
     d16:	91 1d       	adc	r25, r1
     d18:	a1 1d       	adc	r26, r1
     d1a:	6a 0f       	add	r22, r26
     d1c:	71 1d       	adc	r23, r1
     d1e:	81 1d       	adc	r24, r1
     d20:	91 1d       	adc	r25, r1
     d22:	a1 1d       	adc	r26, r1
     d24:	20 d0       	rcall	.+64     	; 0xd66 <__ultoa_invert+0x84>
     d26:	09 f4       	brne	.+2      	; 0xd2a <__ultoa_invert+0x48>
     d28:	68 94       	set
     d2a:	3f 91       	pop	r19
     d2c:	2a e0       	ldi	r18, 0x0A	; 10
     d2e:	26 9f       	mul	r18, r22
     d30:	11 24       	eor	r1, r1
     d32:	30 19       	sub	r19, r0
     d34:	30 5d       	subi	r19, 0xD0	; 208
     d36:	31 93       	st	Z+, r19
     d38:	de f6       	brtc	.-74     	; 0xcf0 <__ultoa_invert+0xe>
     d3a:	cf 01       	movw	r24, r30
     d3c:	08 95       	ret
     d3e:	46 2f       	mov	r20, r22
     d40:	47 70       	andi	r20, 0x07	; 7
     d42:	40 5d       	subi	r20, 0xD0	; 208
     d44:	41 93       	st	Z+, r20
     d46:	b3 e0       	ldi	r27, 0x03	; 3
     d48:	0f d0       	rcall	.+30     	; 0xd68 <__ultoa_invert+0x86>
     d4a:	c9 f7       	brne	.-14     	; 0xd3e <__ultoa_invert+0x5c>
     d4c:	f6 cf       	rjmp	.-20     	; 0xd3a <__ultoa_invert+0x58>
     d4e:	46 2f       	mov	r20, r22
     d50:	4f 70       	andi	r20, 0x0F	; 15
     d52:	40 5d       	subi	r20, 0xD0	; 208
     d54:	4a 33       	cpi	r20, 0x3A	; 58
     d56:	18 f0       	brcs	.+6      	; 0xd5e <__ultoa_invert+0x7c>
     d58:	49 5d       	subi	r20, 0xD9	; 217
     d5a:	31 fd       	sbrc	r19, 1
     d5c:	40 52       	subi	r20, 0x20	; 32
     d5e:	41 93       	st	Z+, r20
     d60:	02 d0       	rcall	.+4      	; 0xd66 <__ultoa_invert+0x84>
     d62:	a9 f7       	brne	.-22     	; 0xd4e <__ultoa_invert+0x6c>
     d64:	ea cf       	rjmp	.-44     	; 0xd3a <__ultoa_invert+0x58>
     d66:	b4 e0       	ldi	r27, 0x04	; 4
     d68:	a6 95       	lsr	r26
     d6a:	97 95       	ror	r25
     d6c:	87 95       	ror	r24
     d6e:	77 95       	ror	r23
     d70:	67 95       	ror	r22
     d72:	ba 95       	dec	r27
     d74:	c9 f7       	brne	.-14     	; 0xd68 <__ultoa_invert+0x86>
     d76:	00 97       	sbiw	r24, 0x00	; 0
     d78:	61 05       	cpc	r22, r1
     d7a:	71 05       	cpc	r23, r1
     d7c:	08 95       	ret
     d7e:	9b 01       	movw	r18, r22
     d80:	ac 01       	movw	r20, r24
     d82:	0a 2e       	mov	r0, r26
     d84:	06 94       	lsr	r0
     d86:	57 95       	ror	r21
     d88:	47 95       	ror	r20
     d8a:	37 95       	ror	r19
     d8c:	27 95       	ror	r18
     d8e:	ba 95       	dec	r27
     d90:	c9 f7       	brne	.-14     	; 0xd84 <__ultoa_invert+0xa2>
     d92:	62 0f       	add	r22, r18
     d94:	73 1f       	adc	r23, r19
     d96:	84 1f       	adc	r24, r20
     d98:	95 1f       	adc	r25, r21
     d9a:	a0 1d       	adc	r26, r0
     d9c:	08 95       	ret

00000d9e <__ftoa_engine>:
     d9e:	28 30       	cpi	r18, 0x08	; 8
     da0:	08 f0       	brcs	.+2      	; 0xda4 <__ftoa_engine+0x6>
     da2:	27 e0       	ldi	r18, 0x07	; 7
     da4:	33 27       	eor	r19, r19
     da6:	da 01       	movw	r26, r20
     da8:	99 0f       	add	r25, r25
     daa:	31 1d       	adc	r19, r1
     dac:	87 fd       	sbrc	r24, 7
     dae:	91 60       	ori	r25, 0x01	; 1
     db0:	00 96       	adiw	r24, 0x00	; 0
     db2:	61 05       	cpc	r22, r1
     db4:	71 05       	cpc	r23, r1
     db6:	39 f4       	brne	.+14     	; 0xdc6 <__ftoa_engine+0x28>
     db8:	32 60       	ori	r19, 0x02	; 2
     dba:	2e 5f       	subi	r18, 0xFE	; 254
     dbc:	3d 93       	st	X+, r19
     dbe:	30 e3       	ldi	r19, 0x30	; 48
     dc0:	2a 95       	dec	r18
     dc2:	e1 f7       	brne	.-8      	; 0xdbc <__ftoa_engine+0x1e>
     dc4:	08 95       	ret
     dc6:	9f 3f       	cpi	r25, 0xFF	; 255
     dc8:	30 f0       	brcs	.+12     	; 0xdd6 <__ftoa_engine+0x38>
     dca:	80 38       	cpi	r24, 0x80	; 128
     dcc:	71 05       	cpc	r23, r1
     dce:	61 05       	cpc	r22, r1
     dd0:	09 f0       	breq	.+2      	; 0xdd4 <__ftoa_engine+0x36>
     dd2:	3c 5f       	subi	r19, 0xFC	; 252
     dd4:	3c 5f       	subi	r19, 0xFC	; 252
     dd6:	3d 93       	st	X+, r19
     dd8:	91 30       	cpi	r25, 0x01	; 1
     dda:	08 f0       	brcs	.+2      	; 0xdde <__ftoa_engine+0x40>
     ddc:	80 68       	ori	r24, 0x80	; 128
     dde:	91 1d       	adc	r25, r1
     de0:	df 93       	push	r29
     de2:	cf 93       	push	r28
     de4:	1f 93       	push	r17
     de6:	0f 93       	push	r16
     de8:	ff 92       	push	r15
     dea:	ef 92       	push	r14
     dec:	19 2f       	mov	r17, r25
     dee:	98 7f       	andi	r25, 0xF8	; 248
     df0:	96 95       	lsr	r25
     df2:	e9 2f       	mov	r30, r25
     df4:	96 95       	lsr	r25
     df6:	96 95       	lsr	r25
     df8:	e9 0f       	add	r30, r25
     dfa:	ff 27       	eor	r31, r31
     dfc:	ee 59       	subi	r30, 0x9E	; 158
     dfe:	f4 4f       	sbci	r31, 0xF4	; 244
     e00:	99 27       	eor	r25, r25
     e02:	33 27       	eor	r19, r19
     e04:	ee 24       	eor	r14, r14
     e06:	ff 24       	eor	r15, r15
     e08:	a7 01       	movw	r20, r14
     e0a:	e7 01       	movw	r28, r14
     e0c:	05 90       	lpm	r0, Z+
     e0e:	08 94       	sec
     e10:	07 94       	ror	r0
     e12:	28 f4       	brcc	.+10     	; 0xe1e <__ftoa_engine+0x80>
     e14:	36 0f       	add	r19, r22
     e16:	e7 1e       	adc	r14, r23
     e18:	f8 1e       	adc	r15, r24
     e1a:	49 1f       	adc	r20, r25
     e1c:	51 1d       	adc	r21, r1
     e1e:	66 0f       	add	r22, r22
     e20:	77 1f       	adc	r23, r23
     e22:	88 1f       	adc	r24, r24
     e24:	99 1f       	adc	r25, r25
     e26:	06 94       	lsr	r0
     e28:	a1 f7       	brne	.-24     	; 0xe12 <__ftoa_engine+0x74>
     e2a:	05 90       	lpm	r0, Z+
     e2c:	07 94       	ror	r0
     e2e:	28 f4       	brcc	.+10     	; 0xe3a <__ftoa_engine+0x9c>
     e30:	e7 0e       	add	r14, r23
     e32:	f8 1e       	adc	r15, r24
     e34:	49 1f       	adc	r20, r25
     e36:	56 1f       	adc	r21, r22
     e38:	c1 1d       	adc	r28, r1
     e3a:	77 0f       	add	r23, r23
     e3c:	88 1f       	adc	r24, r24
     e3e:	99 1f       	adc	r25, r25
     e40:	66 1f       	adc	r22, r22
     e42:	06 94       	lsr	r0
     e44:	a1 f7       	brne	.-24     	; 0xe2e <__ftoa_engine+0x90>
     e46:	05 90       	lpm	r0, Z+
     e48:	07 94       	ror	r0
     e4a:	28 f4       	brcc	.+10     	; 0xe56 <__ftoa_engine+0xb8>
     e4c:	f8 0e       	add	r15, r24
     e4e:	49 1f       	adc	r20, r25
     e50:	56 1f       	adc	r21, r22
     e52:	c7 1f       	adc	r28, r23
     e54:	d1 1d       	adc	r29, r1
     e56:	88 0f       	add	r24, r24
     e58:	99 1f       	adc	r25, r25
     e5a:	66 1f       	adc	r22, r22
     e5c:	77 1f       	adc	r23, r23
     e5e:	06 94       	lsr	r0
     e60:	a1 f7       	brne	.-24     	; 0xe4a <__ftoa_engine+0xac>
     e62:	05 90       	lpm	r0, Z+
     e64:	07 94       	ror	r0
     e66:	20 f4       	brcc	.+8      	; 0xe70 <__ftoa_engine+0xd2>
     e68:	49 0f       	add	r20, r25
     e6a:	56 1f       	adc	r21, r22
     e6c:	c7 1f       	adc	r28, r23
     e6e:	d8 1f       	adc	r29, r24
     e70:	99 0f       	add	r25, r25
     e72:	66 1f       	adc	r22, r22
     e74:	77 1f       	adc	r23, r23
     e76:	88 1f       	adc	r24, r24
     e78:	06 94       	lsr	r0
     e7a:	a9 f7       	brne	.-22     	; 0xe66 <__ftoa_engine+0xc8>
     e7c:	84 91       	lpm	r24, Z
     e7e:	10 95       	com	r17
     e80:	17 70       	andi	r17, 0x07	; 7
     e82:	41 f0       	breq	.+16     	; 0xe94 <__ftoa_engine+0xf6>
     e84:	d6 95       	lsr	r29
     e86:	c7 95       	ror	r28
     e88:	57 95       	ror	r21
     e8a:	47 95       	ror	r20
     e8c:	f7 94       	ror	r15
     e8e:	e7 94       	ror	r14
     e90:	1a 95       	dec	r17
     e92:	c1 f7       	brne	.-16     	; 0xe84 <__ftoa_engine+0xe6>
     e94:	e8 e0       	ldi	r30, 0x08	; 8
     e96:	fb e0       	ldi	r31, 0x0B	; 11
     e98:	68 94       	set
     e9a:	15 90       	lpm	r1, Z+
     e9c:	15 91       	lpm	r17, Z+
     e9e:	35 91       	lpm	r19, Z+
     ea0:	65 91       	lpm	r22, Z+
     ea2:	95 91       	lpm	r25, Z+
     ea4:	05 90       	lpm	r0, Z+
     ea6:	7f e2       	ldi	r23, 0x2F	; 47
     ea8:	73 95       	inc	r23
     eaa:	e1 18       	sub	r14, r1
     eac:	f1 0a       	sbc	r15, r17
     eae:	43 0b       	sbc	r20, r19
     eb0:	56 0b       	sbc	r21, r22
     eb2:	c9 0b       	sbc	r28, r25
     eb4:	d0 09       	sbc	r29, r0
     eb6:	c0 f7       	brcc	.-16     	; 0xea8 <__ftoa_engine+0x10a>
     eb8:	e1 0c       	add	r14, r1
     eba:	f1 1e       	adc	r15, r17
     ebc:	43 1f       	adc	r20, r19
     ebe:	56 1f       	adc	r21, r22
     ec0:	c9 1f       	adc	r28, r25
     ec2:	d0 1d       	adc	r29, r0
     ec4:	7e f4       	brtc	.+30     	; 0xee4 <__ftoa_engine+0x146>
     ec6:	70 33       	cpi	r23, 0x30	; 48
     ec8:	11 f4       	brne	.+4      	; 0xece <__ftoa_engine+0x130>
     eca:	8a 95       	dec	r24
     ecc:	e6 cf       	rjmp	.-52     	; 0xe9a <__ftoa_engine+0xfc>
     ece:	e8 94       	clt
     ed0:	01 50       	subi	r16, 0x01	; 1
     ed2:	30 f0       	brcs	.+12     	; 0xee0 <__ftoa_engine+0x142>
     ed4:	08 0f       	add	r16, r24
     ed6:	0a f4       	brpl	.+2      	; 0xeda <__ftoa_engine+0x13c>
     ed8:	00 27       	eor	r16, r16
     eda:	02 17       	cp	r16, r18
     edc:	08 f4       	brcc	.+2      	; 0xee0 <__ftoa_engine+0x142>
     ede:	20 2f       	mov	r18, r16
     ee0:	23 95       	inc	r18
     ee2:	02 2f       	mov	r16, r18
     ee4:	7a 33       	cpi	r23, 0x3A	; 58
     ee6:	28 f0       	brcs	.+10     	; 0xef2 <__ftoa_engine+0x154>
     ee8:	79 e3       	ldi	r23, 0x39	; 57
     eea:	7d 93       	st	X+, r23
     eec:	2a 95       	dec	r18
     eee:	e9 f7       	brne	.-6      	; 0xeea <__ftoa_engine+0x14c>
     ef0:	10 c0       	rjmp	.+32     	; 0xf12 <__ftoa_engine+0x174>
     ef2:	7d 93       	st	X+, r23
     ef4:	2a 95       	dec	r18
     ef6:	89 f6       	brne	.-94     	; 0xe9a <__ftoa_engine+0xfc>
     ef8:	06 94       	lsr	r0
     efa:	97 95       	ror	r25
     efc:	67 95       	ror	r22
     efe:	37 95       	ror	r19
     f00:	17 95       	ror	r17
     f02:	17 94       	ror	r1
     f04:	e1 18       	sub	r14, r1
     f06:	f1 0a       	sbc	r15, r17
     f08:	43 0b       	sbc	r20, r19
     f0a:	56 0b       	sbc	r21, r22
     f0c:	c9 0b       	sbc	r28, r25
     f0e:	d0 09       	sbc	r29, r0
     f10:	98 f0       	brcs	.+38     	; 0xf38 <__ftoa_engine+0x19a>
     f12:	23 95       	inc	r18
     f14:	7e 91       	ld	r23, -X
     f16:	73 95       	inc	r23
     f18:	7a 33       	cpi	r23, 0x3A	; 58
     f1a:	08 f0       	brcs	.+2      	; 0xf1e <__ftoa_engine+0x180>
     f1c:	70 e3       	ldi	r23, 0x30	; 48
     f1e:	7c 93       	st	X, r23
     f20:	20 13       	cpse	r18, r16
     f22:	b8 f7       	brcc	.-18     	; 0xf12 <__ftoa_engine+0x174>
     f24:	7e 91       	ld	r23, -X
     f26:	70 61       	ori	r23, 0x10	; 16
     f28:	7d 93       	st	X+, r23
     f2a:	30 f0       	brcs	.+12     	; 0xf38 <__ftoa_engine+0x19a>
     f2c:	83 95       	inc	r24
     f2e:	71 e3       	ldi	r23, 0x31	; 49
     f30:	7d 93       	st	X+, r23
     f32:	70 e3       	ldi	r23, 0x30	; 48
     f34:	2a 95       	dec	r18
     f36:	e1 f7       	brne	.-8      	; 0xf30 <__ftoa_engine+0x192>
     f38:	11 24       	eor	r1, r1
     f3a:	ef 90       	pop	r14
     f3c:	ff 90       	pop	r15
     f3e:	0f 91       	pop	r16
     f40:	1f 91       	pop	r17
     f42:	cf 91       	pop	r28
     f44:	df 91       	pop	r29
     f46:	99 27       	eor	r25, r25
     f48:	87 fd       	sbrc	r24, 7
     f4a:	90 95       	com	r25
     f4c:	08 95       	ret

00000f4e <_ZN3OSD9availableEv>:
     f4e:	80 e0       	ldi	r24, 0x00	; 0
     f50:	08 95       	ret

00000f52 <_ZN3OSD4readEv>:
     f52:	80 e0       	ldi	r24, 0x00	; 0
     f54:	08 95       	ret

00000f56 <_ZN3OSD4peekEv>:
     f56:	80 e0       	ldi	r24, 0x00	; 0
     f58:	08 95       	ret

00000f5a <_ZN3OSD5flushEv>:
     f5a:	08 95       	ret

00000f5c <_Z12unplugSlavesv>:
     f5c:	5e 9a       	sbi	0x0b, 6	; 11
     f5e:	08 95       	ret

00000f60 <_Z8delay_15v>:
     f60:	6f e0       	ldi	r22, 0x0F	; 15
     f62:	70 e0       	ldi	r23, 0x00	; 0
     f64:	80 e0       	ldi	r24, 0x00	; 0
     f66:	90 e0       	ldi	r25, 0x00	; 0
     f68:	0e 94 3f 36 	call	0x6c7e	; 0x6c7e <delay>
     f6c:	08 95       	ret

00000f6e <_Z8MAX_modeh>:
     f6e:	68 2f       	mov	r22, r24
     f70:	80 e0       	ldi	r24, 0x00	; 0
     f72:	0e 94 87 13 	call	0x270e	; 0x270e <_Z9MAX_writehh>
     f76:	08 95       	ret

00000f78 <_ZN3OSD7setModeEh>:
     f78:	88 23       	and	r24, r24
     f7a:	11 f0       	breq	.+4      	; 0xf80 <_ZN3OSD7setModeEh+0x8>
     f7c:	80 e4       	ldi	r24, 0x40	; 64
     f7e:	01 c0       	rjmp	.+2      	; 0xf82 <_ZN3OSD7setModeEh+0xa>
     f80:	80 e0       	ldi	r24, 0x00	; 0
     f82:	90 91 37 03 	lds	r25, 0x0337	; 0x800337 <_ZN3OSD10video_modeE>
     f86:	98 17       	cp	r25, r24
     f88:	49 f0       	breq	.+18     	; 0xf9c <_ZN3OSD7setModeEh+0x24>
     f8a:	80 93 37 03 	sts	0x0337, r24	; 0x800337 <_ZN3OSD10video_modeE>
     f8e:	5e 98       	cbi	0x0b, 6	; 11
     f90:	80 91 37 03 	lds	r24, 0x0337	; 0x800337 <_ZN3OSD10video_modeE>
     f94:	8c 61       	ori	r24, 0x1C	; 28
     f96:	0e 94 b7 07 	call	0xf6e	; 0xf6e <_Z8MAX_modeh>
     f9a:	5e 9a       	sbi	0x0b, 6	; 11
     f9c:	08 95       	ret

00000f9e <_ZN3OSD10detectModeEv>:
     f9e:	5e 98       	cbi	0x0b, 6	; 11
     fa0:	80 91 5a 04 	lds	r24, 0x045A	; 0x80045a <sets+0x1>
     fa4:	81 fd       	sbrc	r24, 1
     fa6:	06 c0       	rjmp	.+12     	; 0xfb4 <_ZN3OSD10detectModeEv+0x16>
     fa8:	80 91 59 04 	lds	r24, 0x0459	; 0x800459 <sets>
     fac:	83 ff       	sbrs	r24, 3
     fae:	1c c0       	rjmp	.+56     	; 0xfe8 <_ZN3OSD10detectModeEv+0x4a>
     fb0:	81 e0       	ldi	r24, 0x01	; 1
     fb2:	1b c0       	rjmp	.+54     	; 0xfea <_ZN3OSD10detectModeEv+0x4c>
     fb4:	80 ea       	ldi	r24, 0xA0	; 160
     fb6:	0e 94 92 13 	call	0x2724	; 0x2724 <_Z8MAX_readh>
     fba:	80 ff       	sbrs	r24, 0
     fbc:	07 c0       	rjmp	.+14     	; 0xfcc <_ZN3OSD10detectModeEv+0x2e>
     fbe:	81 e0       	ldi	r24, 0x01	; 1
     fc0:	0e 94 bc 07 	call	0xf78	; 0xf78 <_ZN3OSD7setModeEh>
     fc4:	80 91 59 04 	lds	r24, 0x0459	; 0x800459 <sets>
     fc8:	88 60       	ori	r24, 0x08	; 8
     fca:	08 c0       	rjmp	.+16     	; 0xfdc <_ZN3OSD10detectModeEv+0x3e>
     fcc:	81 ff       	sbrs	r24, 1
     fce:	09 c0       	rjmp	.+18     	; 0xfe2 <_ZN3OSD10detectModeEv+0x44>
     fd0:	80 e0       	ldi	r24, 0x00	; 0
     fd2:	0e 94 bc 07 	call	0xf78	; 0xf78 <_ZN3OSD7setModeEh>
     fd6:	80 91 59 04 	lds	r24, 0x0459	; 0x800459 <sets>
     fda:	87 7f       	andi	r24, 0xF7	; 247
     fdc:	80 93 59 04 	sts	0x0459, r24	; 0x800459 <sets>
     fe0:	06 c0       	rjmp	.+12     	; 0xfee <_ZN3OSD10detectModeEv+0x50>
     fe2:	82 fd       	sbrc	r24, 2
     fe4:	e1 cf       	rjmp	.-62     	; 0xfa8 <_ZN3OSD10detectModeEv+0xa>
     fe6:	03 c0       	rjmp	.+6      	; 0xfee <_ZN3OSD10detectModeEv+0x50>
     fe8:	80 e0       	ldi	r24, 0x00	; 0
     fea:	0e 94 bc 07 	call	0xf78	; 0xf78 <_ZN3OSD7setModeEh>
     fee:	5e 9a       	sbi	0x0b, 6	; 11
     ff0:	08 95       	ret

00000ff2 <_ZN3OSD13setBrightnessEv>:
     ff2:	cf 93       	push	r28
     ff4:	df 93       	push	r29
     ff6:	e0 91 5f 04 	lds	r30, 0x045F	; 0x80045f <sets+0x6>
     ffa:	e4 30       	cpi	r30, 0x04	; 4
     ffc:	08 f0       	brcs	.+2      	; 0x1000 <_ZN3OSD13setBrightnessEv+0xe>
     ffe:	e0 e0       	ldi	r30, 0x00	; 0
    1000:	f0 e0       	ldi	r31, 0x00	; 0
    1002:	ef 5e       	subi	r30, 0xEF	; 239
    1004:	fe 4f       	sbci	r31, 0xFE	; 254
    1006:	c4 91       	lpm	r28, Z
    1008:	80 e1       	ldi	r24, 0x10	; 16
    100a:	d1 e0       	ldi	r29, 0x01	; 1
    100c:	d8 0f       	add	r29, r24
    100e:	6c 2f       	mov	r22, r28
    1010:	0e 94 87 13 	call	0x270e	; 0x270e <_Z9MAX_writehh>
    1014:	8d 2f       	mov	r24, r29
    1016:	d0 32       	cpi	r29, 0x20	; 32
    1018:	c1 f7       	brne	.-16     	; 0x100a <_ZN3OSD13setBrightnessEv+0x18>
    101a:	df 91       	pop	r29
    101c:	cf 91       	pop	r28
    101e:	08 95       	ret

00001020 <_ZN3OSD6adjustEv>:
    1020:	5e 98       	cbi	0x0b, 6	; 11
    1022:	0e 94 f9 07 	call	0xff2	; 0xff2 <_ZN3OSD13setBrightnessEv>
    1026:	60 91 9d 04 	lds	r22, 0x049D	; 0x80049d <sets+0x44>
    102a:	82 e0       	ldi	r24, 0x02	; 2
    102c:	0e 94 87 13 	call	0x270e	; 0x270e <_Z9MAX_writehh>
    1030:	60 91 9c 04 	lds	r22, 0x049C	; 0x80049c <sets+0x43>
    1034:	83 e0       	ldi	r24, 0x03	; 3
    1036:	0e 94 87 13 	call	0x270e	; 0x270e <_Z9MAX_writehh>
    103a:	5e 9a       	sbi	0x0b, 6	; 11
    103c:	08 95       	ret

0000103e <_ZN3OSD7hw_initEv>:
    103e:	5e 98       	cbi	0x0b, 6	; 11
    1040:	8c ee       	ldi	r24, 0xEC	; 236
    1042:	0e 94 92 13 	call	0x2724	; 0x2724 <_Z8MAX_readh>
    1046:	68 2f       	mov	r22, r24
    1048:	6f 7e       	andi	r22, 0xEF	; 239
    104a:	8c e6       	ldi	r24, 0x6C	; 108
    104c:	0e 94 87 13 	call	0x270e	; 0x270e <_Z9MAX_writehh>
    1050:	62 e1       	ldi	r22, 0x12	; 18
    1052:	8c e0       	ldi	r24, 0x0C	; 12
    1054:	0e 94 87 13 	call	0x270e	; 0x270e <_Z9MAX_writehh>
    1058:	80 91 37 03 	lds	r24, 0x0337	; 0x800337 <_ZN3OSD10video_modeE>
    105c:	8c 63       	ori	r24, 0x3C	; 60
    105e:	0e 94 b7 07 	call	0xf6e	; 0xf6e <_Z8MAX_modeh>
    1062:	0e 94 47 1e 	call	0x3c8e	; 0x3c8e <_Z9delay_150v>
    1066:	80 91 37 03 	lds	r24, 0x0337	; 0x800337 <_ZN3OSD10video_modeE>
    106a:	8c 61       	ori	r24, 0x1C	; 28
    106c:	0e 94 b7 07 	call	0xf6e	; 0xf6e <_Z8MAX_modeh>
    1070:	0e 94 10 08 	call	0x1020	; 0x1020 <_ZN3OSD6adjustEv>
    1074:	08 95       	ret

00001076 <_ZN3OSD5resetEv>:
    1076:	cf 93       	push	r28
    1078:	df 93       	push	r29
    107a:	5e 98       	cbi	0x0b, 6	; 11
    107c:	c0 e1       	ldi	r28, 0x10	; 16
    107e:	df ef       	ldi	r29, 0xFF	; 255
    1080:	c1 50       	subi	r28, 0x01	; 1
    1082:	61 f4       	brne	.+24     	; 0x109c <_ZN3OSD5resetEv+0x26>
    1084:	80 91 37 03 	lds	r24, 0x0337	; 0x800337 <_ZN3OSD10video_modeE>
    1088:	82 60       	ori	r24, 0x02	; 2
    108a:	0e 94 b7 07 	call	0xf6e	; 0xf6e <_Z8MAX_modeh>
    108e:	0e 94 b0 07 	call	0xf60	; 0xf60 <_Z8delay_15v>
    1092:	0e 94 1f 08 	call	0x103e	; 0x103e <_ZN3OSD7hw_initEv>
    1096:	df 91       	pop	r29
    1098:	cf 91       	pop	r28
    109a:	08 95       	ret
    109c:	80 ea       	ldi	r24, 0xA0	; 160
    109e:	0e 94 92 13 	call	0x2724	; 0x2724 <_Z8MAX_readh>
    10a2:	87 70       	andi	r24, 0x07	; 7
    10a4:	79 f7       	brne	.-34     	; 0x1084 <_ZN3OSD5resetEv+0xe>
    10a6:	84 e0       	ldi	r24, 0x04	; 4
    10a8:	81 50       	subi	r24, 0x01	; 1
    10aa:	31 f0       	breq	.+12     	; 0x10b8 <_ZN3OSD5resetEv+0x42>
    10ac:	de bd       	out	0x2e, r29	; 46
    10ae:	0d b4       	in	r0, 0x2d	; 45
    10b0:	07 fe       	sbrs	r0, 7
    10b2:	fd cf       	rjmp	.-6      	; 0x10ae <_ZN3OSD5resetEv+0x38>
    10b4:	9e b5       	in	r25, 0x2e	; 46
    10b6:	f8 cf       	rjmp	.-16     	; 0x10a8 <_ZN3OSD5resetEv+0x32>
    10b8:	0e 94 b0 07 	call	0xf60	; 0xf60 <_Z8delay_15v>
    10bc:	e1 cf       	rjmp	.-62     	; 0x1080 <_ZN3OSD5resetEv+0xa>

000010be <_ZN3OSD4initEv>:
    10be:	61 e0       	ldi	r22, 0x01	; 1
    10c0:	8e e0       	ldi	r24, 0x0E	; 14
    10c2:	0e 94 a9 36 	call	0x6d52	; 0x6d52 <pinMode>
    10c6:	62 e0       	ldi	r22, 0x02	; 2
    10c8:	82 e0       	ldi	r24, 0x02	; 2
    10ca:	0e 94 a9 36 	call	0x6d52	; 0x6d52 <pinMode>
    10ce:	61 e0       	ldi	r22, 0x01	; 1
    10d0:	83 e0       	ldi	r24, 0x03	; 3
    10d2:	0e 94 a9 36 	call	0x6d52	; 0x6d52 <pinMode>
    10d6:	61 e0       	ldi	r22, 0x01	; 1
    10d8:	83 e0       	ldi	r24, 0x03	; 3
    10da:	0e 94 e5 36 	call	0x6dca	; 0x6dca <digitalWrite>
    10de:	0e 94 3b 08 	call	0x1076	; 0x1076 <_ZN3OSD5resetEv>
    10e2:	0e 94 cf 07 	call	0xf9e	; 0xf9e <_ZN3OSD10detectModeEv>
    10e6:	0e 94 1f 08 	call	0x103e	; 0x103e <_ZN3OSD7hw_initEv>
    10ea:	08 95       	ret

000010ec <_ZN3OSD8calc_posEv>:
    10ec:	20 91 38 03 	lds	r18, 0x0338	; 0x800338 <_ZN3OSD3rowE>
    10f0:	80 91 39 03 	lds	r24, 0x0339	; 0x800339 <_ZN3OSD3colE>
    10f4:	90 e0       	ldi	r25, 0x00	; 0
    10f6:	3e e1       	ldi	r19, 0x1E	; 30
    10f8:	23 9f       	mul	r18, r19
    10fa:	80 0d       	add	r24, r0
    10fc:	91 1d       	adc	r25, r1
    10fe:	11 24       	eor	r1, r1
    1100:	90 93 55 01 	sts	0x0155, r25	; 0x800155 <__data_end+0x1>
    1104:	80 93 54 01 	sts	0x0154, r24	; 0x800154 <__data_end>
    1108:	08 95       	ret

0000110a <_ZN3OSD8setPanelEhh>:
    110a:	8f 71       	andi	r24, 0x1F	; 31
    110c:	80 93 39 03 	sts	0x0339, r24	; 0x800339 <_ZN3OSD3colE>
    1110:	6f 70       	andi	r22, 0x0F	; 15
    1112:	60 93 38 03 	sts	0x0338, r22	; 0x800338 <_ZN3OSD3rowE>
    1116:	80 91 37 03 	lds	r24, 0x0337	; 0x800337 <_ZN3OSD10video_modeE>
    111a:	80 34       	cpi	r24, 0x40	; 64
    111c:	11 f0       	breq	.+4      	; 0x1122 <_ZN3OSD8setPanelEhh+0x18>
    111e:	67 30       	cpi	r22, 0x07	; 7
    1120:	18 f4       	brcc	.+6      	; 0x1128 <_ZN3OSD8setPanelEhh+0x1e>
    1122:	0e 94 76 08 	call	0x10ec	; 0x10ec <_ZN3OSD8calc_posEv>
    1126:	08 95       	ret
    1128:	63 50       	subi	r22, 0x03	; 3
    112a:	60 93 38 03 	sts	0x0338, r22	; 0x800338 <_ZN3OSD3rowE>
    112e:	f9 cf       	rjmp	.-14     	; 0x1122 <_ZN3OSD8setPanelEhh+0x18>

00001130 <_ZN3OSD8relPanelEhh>:
    1130:	90 91 38 03 	lds	r25, 0x0338	; 0x800338 <_ZN3OSD3rowE>
    1134:	69 0f       	add	r22, r25
    1136:	90 91 39 03 	lds	r25, 0x0339	; 0x800339 <_ZN3OSD3colE>
    113a:	89 0f       	add	r24, r25
    113c:	9e e1       	ldi	r25, 0x1E	; 30
    113e:	69 9f       	mul	r22, r25
    1140:	b0 01       	movw	r22, r0
    1142:	11 24       	eor	r1, r1
    1144:	68 0f       	add	r22, r24
    1146:	71 1d       	adc	r23, r1
    1148:	70 93 55 01 	sts	0x0155, r23	; 0x800155 <__data_end+0x1>
    114c:	60 93 54 01 	sts	0x0154, r22	; 0x800154 <__data_end>
    1150:	08 95       	ret

00001152 <_ZN3OSD9write_rawEh>:
    1152:	20 91 54 01 	lds	r18, 0x0154	; 0x800154 <__data_end>
    1156:	30 91 55 01 	lds	r19, 0x0155	; 0x800155 <__data_end+0x1>
    115a:	21 3e       	cpi	r18, 0xE1	; 225
    115c:	91 e0       	ldi	r25, 0x01	; 1
    115e:	39 07       	cpc	r19, r25
    1160:	58 f4       	brcc	.+22     	; 0x1178 <_ZN3OSD9write_rawEh+0x26>
    1162:	a9 01       	movw	r20, r18
    1164:	4f 5f       	subi	r20, 0xFF	; 255
    1166:	5f 4f       	sbci	r21, 0xFF	; 255
    1168:	50 93 55 01 	sts	0x0155, r21	; 0x800155 <__data_end+0x1>
    116c:	40 93 54 01 	sts	0x0154, r20	; 0x800154 <__data_end>
    1170:	f9 01       	movw	r30, r18
    1172:	ea 5a       	subi	r30, 0xAA	; 170
    1174:	fe 4f       	sbci	r31, 0xFE	; 254
    1176:	80 83       	st	Z, r24
    1178:	08 95       	ret

0000117a <_ZN3OSD7write_SEh>:
    117a:	8f 3f       	cpi	r24, 0xFF	; 255
    117c:	41 f4       	brne	.+16     	; 0x118e <_ZN3OSD7write_SEh+0x14>
    117e:	80 91 38 03 	lds	r24, 0x0338	; 0x800338 <_ZN3OSD3rowE>
    1182:	8f 5f       	subi	r24, 0xFF	; 255
    1184:	80 93 38 03 	sts	0x0338, r24	; 0x800338 <_ZN3OSD3rowE>
    1188:	0e 94 76 08 	call	0x10ec	; 0x10ec <_ZN3OSD8calc_posEv>
    118c:	08 95       	ret
    118e:	0e 94 a9 08 	call	0x1152	; 0x1152 <_ZN3OSD9write_rawEh>
    1192:	08 95       	ret

00001194 <_ZN3OSD5writeEh>:
    1194:	86 2f       	mov	r24, r22
    1196:	0e 94 bd 08 	call	0x117a	; 0x117a <_ZN3OSD7write_SEh>
    119a:	81 e0       	ldi	r24, 0x01	; 1
    119c:	90 e0       	ldi	r25, 0x00	; 0
    119e:	08 95       	ret

000011a0 <_ZN3OSD8write_xyEhhh>:
    11a0:	cf 93       	push	r28
    11a2:	c4 2f       	mov	r28, r20
    11a4:	0e 94 98 08 	call	0x1130	; 0x1130 <_ZN3OSD8relPanelEhh>
    11a8:	8c 2f       	mov	r24, r28
    11aa:	0e 94 bd 08 	call	0x117a	; 0x117a <_ZN3OSD7write_SEh>
    11ae:	cf 91       	pop	r28
    11b0:	08 95       	ret

000011b2 <_ZN3OSD6updateEv>:
    11b2:	8f ef       	ldi	r24, 0xFF	; 255
    11b4:	80 93 36 03 	sts	0x0336, r24	; 0x800336 <_ZN3OSD6osdbufE+0x1e0>
    11b8:	5e 98       	cbi	0x0b, 6	; 11
    11ba:	60 e0       	ldi	r22, 0x00	; 0
    11bc:	85 e0       	ldi	r24, 0x05	; 5
    11be:	0e 94 87 13 	call	0x270e	; 0x270e <_Z9MAX_writehh>
    11c2:	60 e0       	ldi	r22, 0x00	; 0
    11c4:	86 e0       	ldi	r24, 0x06	; 6
    11c6:	0e 94 87 13 	call	0x270e	; 0x270e <_Z9MAX_writehh>
    11ca:	61 e0       	ldi	r22, 0x01	; 1
    11cc:	84 e0       	ldi	r24, 0x04	; 4
    11ce:	0e 94 87 13 	call	0x270e	; 0x270e <_Z9MAX_writehh>
    11d2:	5e 9a       	sbi	0x0b, 6	; 11
    11d4:	e6 e5       	ldi	r30, 0x56	; 86
    11d6:	f1 e0       	ldi	r31, 0x01	; 1
    11d8:	80 e2       	ldi	r24, 0x20	; 32
    11da:	5e 98       	cbi	0x0b, 6	; 11
    11dc:	90 81       	ld	r25, Z
    11de:	9e bd       	out	0x2e, r25	; 46
    11e0:	0d b4       	in	r0, 0x2d	; 45
    11e2:	07 fe       	sbrs	r0, 7
    11e4:	fd cf       	rjmp	.-6      	; 0x11e0 <_ZN3OSD6updateEv+0x2e>
    11e6:	9e b5       	in	r25, 0x2e	; 46
    11e8:	81 93       	st	Z+, r24
    11ea:	5e 9a       	sbi	0x0b, 6	; 11
    11ec:	93 e0       	ldi	r25, 0x03	; 3
    11ee:	e7 33       	cpi	r30, 0x37	; 55
    11f0:	f9 07       	cpc	r31, r25
    11f2:	98 f3       	brcs	.-26     	; 0x11da <_ZN3OSD6updateEv+0x28>
    11f4:	6d e0       	ldi	r22, 0x0D	; 13
    11f6:	71 e0       	ldi	r23, 0x01	; 1
    11f8:	83 e5       	ldi	r24, 0x53	; 83
    11fa:	93 e0       	ldi	r25, 0x03	; 3
    11fc:	0e 94 ab 3a 	call	0x7556	; 0x7556 <_ZN12BetterStream7print_PEPKc>
    1200:	6a e0       	ldi	r22, 0x0A	; 10
    1202:	71 e0       	ldi	r23, 0x01	; 1
    1204:	83 e5       	ldi	r24, 0x53	; 83
    1206:	93 e0       	ldi	r25, 0x03	; 3
    1208:	0e 94 ab 3a 	call	0x7556	; 0x7556 <_ZN12BetterStream7print_PEPKc>
    120c:	2a e0       	ldi	r18, 0x0A	; 10
    120e:	30 e0       	ldi	r19, 0x00	; 0
    1210:	41 ee       	ldi	r20, 0xE1	; 225
    1212:	51 e0       	ldi	r21, 0x01	; 1
    1214:	60 e0       	ldi	r22, 0x00	; 0
    1216:	70 e0       	ldi	r23, 0x00	; 0
    1218:	83 e5       	ldi	r24, 0x53	; 83
    121a:	93 e0       	ldi	r25, 0x03	; 3
    121c:	0e 94 13 38 	call	0x7026	; 0x7026 <_ZN5Print7printlnEmi>
    1220:	83 e5       	ldi	r24, 0x53	; 83
    1222:	93 e0       	ldi	r25, 0x03	; 3
    1224:	0e 94 84 39 	call	0x7308	; 0x7308 <_ZN10FastSerial4waitEv>
    1228:	0e 94 0e 36 	call	0x6c1c	; 0x6c1c <millis>
    122c:	9f 93       	push	r25
    122e:	8f 93       	push	r24
    1230:	7f 93       	push	r23
    1232:	6f 93       	push	r22
    1234:	80 e0       	ldi	r24, 0x00	; 0
    1236:	91 e0       	ldi	r25, 0x01	; 1
    1238:	9f 93       	push	r25
    123a:	8f 93       	push	r24
    123c:	83 e5       	ldi	r24, 0x53	; 83
    123e:	93 e0       	ldi	r25, 0x03	; 3
    1240:	9f 93       	push	r25
    1242:	8f 93       	push	r24
    1244:	0e 94 e3 3a 	call	0x75c6	; 0x75c6 <_ZN12BetterStream9_printf_PEPKcz>
    1248:	83 e5       	ldi	r24, 0x53	; 83
    124a:	93 e0       	ldi	r25, 0x03	; 3
    124c:	0e 94 84 39 	call	0x7308	; 0x7308 <_ZN10FastSerial4waitEv>
    1250:	8d b7       	in	r24, 0x3d	; 61
    1252:	9e b7       	in	r25, 0x3e	; 62
    1254:	08 96       	adiw	r24, 0x08	; 8
    1256:	0f b6       	in	r0, 0x3f	; 63
    1258:	f8 94       	cli
    125a:	9e bf       	out	0x3e, r25	; 62
    125c:	0f be       	out	0x3f, r0	; 63
    125e:	8d bf       	out	0x3d, r24	; 61
    1260:	08 95       	ret

00001262 <_ZN3OSD9write_NVMEjPh>:
    1262:	0f 93       	push	r16
    1264:	1f 93       	push	r17
    1266:	cf 93       	push	r28
    1268:	df 93       	push	r29
    126a:	18 2f       	mov	r17, r24
    126c:	d6 2f       	mov	r29, r22
    126e:	c7 2f       	mov	r28, r23
    1270:	5e 98       	cbi	0x0b, 6	; 11
    1272:	80 e0       	ldi	r24, 0x00	; 0
    1274:	0e 94 b7 07 	call	0xf6e	; 0xf6e <_Z8MAX_modeh>
    1278:	61 2f       	mov	r22, r17
    127a:	89 e0       	ldi	r24, 0x09	; 9
    127c:	0e 94 87 13 	call	0x270e	; 0x270e <_Z9MAX_writehh>
    1280:	0d 2f       	mov	r16, r29
    1282:	1c 2f       	mov	r17, r28
    1284:	c0 e0       	ldi	r28, 0x00	; 0
    1286:	f8 01       	movw	r30, r16
    1288:	d1 91       	ld	r29, Z+
    128a:	8f 01       	movw	r16, r30
    128c:	6c 2f       	mov	r22, r28
    128e:	8a e0       	ldi	r24, 0x0A	; 10
    1290:	0e 94 87 13 	call	0x270e	; 0x270e <_Z9MAX_writehh>
    1294:	6d 2f       	mov	r22, r29
    1296:	8b e0       	ldi	r24, 0x0B	; 11
    1298:	0e 94 87 13 	call	0x270e	; 0x270e <_Z9MAX_writehh>
    129c:	cf 5f       	subi	r28, 0xFF	; 255
    129e:	c6 33       	cpi	r28, 0x36	; 54
    12a0:	91 f7       	brne	.-28     	; 0x1286 <_ZN3OSD9write_NVMEjPh+0x24>
    12a2:	60 ea       	ldi	r22, 0xA0	; 160
    12a4:	88 e0       	ldi	r24, 0x08	; 8
    12a6:	0e 94 87 13 	call	0x270e	; 0x270e <_Z9MAX_writehh>
    12aa:	80 ea       	ldi	r24, 0xA0	; 160
    12ac:	0e 94 92 13 	call	0x2724	; 0x2724 <_Z8MAX_readh>
    12b0:	85 ff       	sbrs	r24, 5
    12b2:	03 c0       	rjmp	.+6      	; 0x12ba <_ZN3OSD9write_NVMEjPh+0x58>
    12b4:	0e 94 9e 13 	call	0x273c	; 0x273c <_Z11delay_telemv>
    12b8:	f8 cf       	rjmp	.-16     	; 0x12aa <_ZN3OSD9write_NVMEjPh+0x48>
    12ba:	8c e0       	ldi	r24, 0x0C	; 12
    12bc:	0e 94 b7 07 	call	0xf6e	; 0xf6e <_Z8MAX_modeh>
    12c0:	5e 9a       	sbi	0x0b, 6	; 11
    12c2:	df 91       	pop	r29
    12c4:	cf 91       	pop	r28
    12c6:	1f 91       	pop	r17
    12c8:	0f 91       	pop	r16
    12ca:	08 95       	ret

000012cc <crc_accumulate>:
    12cc:	fb 01       	movw	r30, r22
    12ce:	20 81       	ld	r18, Z
    12d0:	82 27       	eor	r24, r18
    12d2:	90 e1       	ldi	r25, 0x10	; 16
    12d4:	89 9f       	mul	r24, r25
    12d6:	90 01       	movw	r18, r0
    12d8:	11 24       	eor	r1, r1
    12da:	28 27       	eor	r18, r24
    12dc:	82 2f       	mov	r24, r18
    12de:	90 e0       	ldi	r25, 0x00	; 0
    12e0:	58 2f       	mov	r21, r24
    12e2:	44 27       	eor	r20, r20
    12e4:	9c 01       	movw	r18, r24
    12e6:	63 e0       	ldi	r22, 0x03	; 3
    12e8:	22 0f       	add	r18, r18
    12ea:	33 1f       	adc	r19, r19
    12ec:	6a 95       	dec	r22
    12ee:	e1 f7       	brne	.-8      	; 0x12e8 <crc_accumulate+0x1c>
    12f0:	42 27       	eor	r20, r18
    12f2:	53 27       	eor	r21, r19
    12f4:	21 81       	ldd	r18, Z+1	; 0x01
    12f6:	30 e0       	ldi	r19, 0x00	; 0
    12f8:	24 27       	eor	r18, r20
    12fa:	35 27       	eor	r19, r21
    12fc:	74 e0       	ldi	r23, 0x04	; 4
    12fe:	95 95       	asr	r25
    1300:	87 95       	ror	r24
    1302:	7a 95       	dec	r23
    1304:	e1 f7       	brne	.-8      	; 0x12fe <crc_accumulate+0x32>
    1306:	82 27       	eor	r24, r18
    1308:	93 27       	eor	r25, r19
    130a:	91 83       	std	Z+1, r25	; 0x01
    130c:	80 83       	st	Z, r24
    130e:	08 95       	ret

00001310 <mavlink_update_checksum>:
    1310:	9c 01       	movw	r18, r24
    1312:	86 2f       	mov	r24, r22
    1314:	b9 01       	movw	r22, r18
    1316:	0e 94 66 09 	call	0x12cc	; 0x12cc <crc_accumulate>
    131a:	08 95       	ret

0000131c <_ZL12get_chan_poshh>:
    131c:	e8 2f       	mov	r30, r24
    131e:	f0 e0       	ldi	r31, 0x00	; 0
    1320:	ee 0f       	add	r30, r30
    1322:	ff 1f       	adc	r31, r31
    1324:	e1 54       	subi	r30, 0x41	; 65
    1326:	f9 4f       	sbci	r31, 0xF9	; 249
    1328:	20 81       	ld	r18, Z
    132a:	31 81       	ldd	r19, Z+1	; 0x01
    132c:	66 23       	and	r22, r22
    132e:	29 f0       	breq	.+10     	; 0x133a <_ZL12get_chan_poshh+0x1e>
    1330:	40 e2       	ldi	r20, 0x20	; 32
    1332:	53 e0       	ldi	r21, 0x03	; 3
    1334:	88 e9       	ldi	r24, 0x98	; 152
    1336:	98 e0       	ldi	r25, 0x08	; 8
    1338:	04 c0       	rjmp	.+8      	; 0x1342 <_ZL12get_chan_poshh+0x26>
    133a:	48 ee       	ldi	r20, 0xE8	; 232
    133c:	53 e0       	ldi	r21, 0x03	; 3
    133e:	80 ed       	ldi	r24, 0xD0	; 208
    1340:	97 e0       	ldi	r25, 0x07	; 7
    1342:	24 17       	cp	r18, r20
    1344:	35 07       	cpc	r19, r21
    1346:	80 f0       	brcs	.+32     	; 0x1368 <_ZL12get_chan_poshh+0x4c>
    1348:	24 1b       	sub	r18, r20
    134a:	35 0b       	sbc	r19, r21
    134c:	84 1b       	sub	r24, r20
    134e:	95 0b       	sbc	r25, r21
    1350:	65 e0       	ldi	r22, 0x05	; 5
    1352:	70 e0       	ldi	r23, 0x00	; 0
    1354:	0e 94 8c 43 	call	0x8718	; 0x8718 <__udivmodhi4>
    1358:	c9 01       	movw	r24, r18
    135a:	0e 94 8c 43 	call	0x8718	; 0x8718 <__udivmodhi4>
    135e:	86 2f       	mov	r24, r22
    1360:	65 30       	cpi	r22, 0x05	; 5
    1362:	18 f0       	brcs	.+6      	; 0x136a <_ZL12get_chan_poshh+0x4e>
    1364:	84 e0       	ldi	r24, 0x04	; 4
    1366:	08 95       	ret
    1368:	80 e0       	ldi	r24, 0x00	; 0
    136a:	08 95       	ret

0000136c <_ZL13storeChannelsv>:
    136c:	af eb       	ldi	r26, 0xBF	; 191
    136e:	b6 e0       	ldi	r27, 0x06	; 6
    1370:	e6 e4       	ldi	r30, 0x46	; 70
    1372:	f6 e0       	ldi	r31, 0x06	; 6
    1374:	80 81       	ld	r24, Z
    1376:	91 81       	ldd	r25, Z+1	; 0x01
    1378:	88 3e       	cpi	r24, 0xE8	; 232
    137a:	93 40       	sbci	r25, 0x03	; 3
    137c:	28 f4       	brcc	.+10     	; 0x1388 <_ZL13storeChannelsv+0x1c>
    137e:	8d 91       	ld	r24, X+
    1380:	9c 91       	ld	r25, X
    1382:	11 97       	sbiw	r26, 0x01	; 1
    1384:	91 83       	std	Z+1, r25	; 0x01
    1386:	80 83       	st	Z, r24
    1388:	32 96       	adiw	r30, 0x02	; 2
    138a:	12 96       	adiw	r26, 0x02	; 2
    138c:	86 e0       	ldi	r24, 0x06	; 6
    138e:	ee 34       	cpi	r30, 0x4E	; 78
    1390:	f8 07       	cpc	r31, r24
    1392:	81 f7       	brne	.-32     	; 0x1374 <_ZL13storeChannelsv+0x8>
    1394:	08 95       	ret

00001396 <_ZL11channelDiffh>:
    1396:	90 e0       	ldi	r25, 0x00	; 0
    1398:	88 0f       	add	r24, r24
    139a:	99 1f       	adc	r25, r25
    139c:	dc 01       	movw	r26, r24
    139e:	a1 54       	subi	r26, 0x41	; 65
    13a0:	b9 4f       	sbci	r27, 0xF9	; 249
    13a2:	fc 01       	movw	r30, r24
    13a4:	ea 5b       	subi	r30, 0xBA	; 186
    13a6:	f9 4f       	sbci	r31, 0xF9	; 249
    13a8:	8d 91       	ld	r24, X+
    13aa:	9c 91       	ld	r25, X
    13ac:	20 81       	ld	r18, Z
    13ae:	31 81       	ldd	r19, Z+1	; 0x01
    13b0:	82 1b       	sub	r24, r18
    13b2:	93 0b       	sbc	r25, r19
    13b4:	08 95       	ret

000013b6 <_ZL9move_menuc>:
    13b6:	e0 91 45 06 	lds	r30, 0x0645	; 0x800645 <_ZL12setup_screen>
    13ba:	35 e0       	ldi	r19, 0x05	; 5
    13bc:	e3 9f       	mul	r30, r19
    13be:	f0 01       	movw	r30, r0
    13c0:	11 24       	eor	r1, r1
    13c2:	e8 57       	subi	r30, 0x78	; 120
    13c4:	f9 4f       	sbci	r31, 0xF9	; 249
    13c6:	94 91       	lpm	r25, Z
    13c8:	91 50       	subi	r25, 0x01	; 1
    13ca:	20 91 10 01 	lds	r18, 0x0110	; 0x800110 <_ZL10setup_menu>
    13ce:	60 91 92 03 	lds	r22, 0x0392	; 0x800392 <params>
    13d2:	70 91 93 03 	lds	r23, 0x0393	; 0x800393 <params+0x1>
    13d6:	87 ff       	sbrs	r24, 7
    13d8:	03 c0       	rjmp	.+6      	; 0x13e0 <_ZL9move_menuc+0x2a>
    13da:	22 23       	and	r18, r18
    13dc:	39 f0       	breq	.+14     	; 0x13ec <_ZL9move_menuc+0x36>
    13de:	04 c0       	rjmp	.+8      	; 0x13e8 <_ZL9move_menuc+0x32>
    13e0:	88 23       	and	r24, r24
    13e2:	11 f0       	breq	.+4      	; 0x13e8 <_ZL9move_menuc+0x32>
    13e4:	29 17       	cp	r18, r25
    13e6:	21 f0       	breq	.+8      	; 0x13f0 <_ZL9move_menuc+0x3a>
    13e8:	28 0f       	add	r18, r24
    13ea:	03 c0       	rjmp	.+6      	; 0x13f2 <_ZL9move_menuc+0x3c>
    13ec:	29 2f       	mov	r18, r25
    13ee:	01 c0       	rjmp	.+2      	; 0x13f2 <_ZL9move_menuc+0x3c>
    13f0:	20 e0       	ldi	r18, 0x00	; 0
    13f2:	fb 01       	movw	r30, r22
    13f4:	36 e0       	ldi	r19, 0x06	; 6
    13f6:	23 9f       	mul	r18, r19
    13f8:	e0 0d       	add	r30, r0
    13fa:	f1 1d       	adc	r31, r1
    13fc:	11 24       	eor	r1, r1
    13fe:	33 96       	adiw	r30, 0x03	; 3
    1400:	45 91       	lpm	r20, Z+
    1402:	54 91       	lpm	r21, Z
    1404:	45 2b       	or	r20, r21
    1406:	39 f3       	breq	.-50     	; 0x13d6 <_ZL9move_menuc+0x20>
    1408:	20 93 10 01 	sts	0x0110, r18	; 0x800110 <_ZL10setup_menu>
    140c:	08 95       	ret

0000140e <_ZL13osd_print_batv>:
    140e:	cf 93       	push	r28
    1410:	df 93       	push	r29
    1412:	88 e8       	ldi	r24, 0x88	; 136
    1414:	0e 94 bd 08 	call	0x117a	; 0x117a <_ZN3OSD7write_SEh>
    1418:	c4 e1       	ldi	r28, 0x14	; 20
    141a:	d1 e0       	ldi	r29, 0x01	; 1
    141c:	88 81       	ld	r24, Y
    141e:	0e 94 bd 08 	call	0x117a	; 0x117a <_ZN3OSD7write_SEh>
    1422:	89 81       	ldd	r24, Y+1	; 0x01
    1424:	0e 94 bd 08 	call	0x117a	; 0x117a <_ZN3OSD7write_SEh>
    1428:	8e e8       	ldi	r24, 0x8E	; 142
    142a:	0e 94 bd 08 	call	0x117a	; 0x117a <_ZN3OSD7write_SEh>
    142e:	df 91       	pop	r29
    1430:	cf 91       	pop	r28
    1432:	08 95       	ret

00001434 <_ZL9showArrowh>:
    1434:	cf 93       	push	r28
    1436:	81 31       	cpi	r24, 0x11	; 17
    1438:	10 f0       	brcs	.+4      	; 0x143e <_ZL9showArrowh+0xa>
    143a:	80 51       	subi	r24, 0x10	; 16
    143c:	fc cf       	rjmp	.-8      	; 0x1436 <_ZL9showArrowh+0x2>
    143e:	81 11       	cpse	r24, r1
    1440:	01 c0       	rjmp	.+2      	; 0x1444 <_ZL9showArrowh+0x10>
    1442:	80 e1       	ldi	r24, 0x10	; 16
    1444:	88 0f       	add	r24, r24
    1446:	ce ef       	ldi	r28, 0xFE	; 254
    1448:	c8 0f       	add	r28, r24
    144a:	80 e9       	ldi	r24, 0x90	; 144
    144c:	8c 0f       	add	r24, r28
    144e:	0e 94 bd 08 	call	0x117a	; 0x117a <_ZN3OSD7write_SEh>
    1452:	81 e9       	ldi	r24, 0x91	; 145
    1454:	8c 0f       	add	r24, r28
    1456:	0e 94 bd 08 	call	0x117a	; 0x117a <_ZN3OSD7write_SEh>
    145a:	cf 91       	pop	r28
    145c:	08 95       	ret

0000145e <_ZL11osd_percentv>:
    145e:	85 e2       	ldi	r24, 0x25	; 37
    1460:	0e 94 bd 08 	call	0x117a	; 0x117a <_ZN3OSD7write_SEh>
    1464:	08 95       	ret

00001466 <_ZL9osd_blankv>:
    1466:	80 e2       	ldi	r24, 0x20	; 32
    1468:	0e 94 bd 08 	call	0x117a	; 0x117a <_ZN3OSD7write_SEh>
    146c:	08 95       	ret

0000146e <_ZL6osd_nlv>:
    146e:	8f ef       	ldi	r24, 0xFF	; 255
    1470:	0e 94 bd 08 	call	0x117a	; 0x117a <_ZN3OSD7write_SEh>
    1474:	08 95       	ret

00001476 <_ZL12osd_setPanel5Point>:
    1476:	69 2f       	mov	r22, r25
    1478:	0e 94 85 08 	call	0x110a	; 0x110a <_ZN3OSD8setPanelEhh>
    147c:	08 95       	ret

0000147e <_ZL12osd_printi_1PKci>:
    147e:	7f 93       	push	r23
    1480:	6f 93       	push	r22
    1482:	9f 93       	push	r25
    1484:	8f 93       	push	r24
    1486:	88 e6       	ldi	r24, 0x68	; 104
    1488:	93 e0       	ldi	r25, 0x03	; 3
    148a:	9f 93       	push	r25
    148c:	8f 93       	push	r24
    148e:	0e 94 e3 3a 	call	0x75c6	; 0x75c6 <_ZN12BetterStream9_printf_PEPKcz>
    1492:	0f 90       	pop	r0
    1494:	0f 90       	pop	r0
    1496:	0f 90       	pop	r0
    1498:	0f 90       	pop	r0
    149a:	0f 90       	pop	r0
    149c:	0f 90       	pop	r0
    149e:	08 95       	ret

000014a0 <_ZL8panMotor5Point>:
    14a0:	ef 92       	push	r14
    14a2:	ff 92       	push	r15
    14a4:	0f 93       	push	r16
    14a6:	1f 93       	push	r17
    14a8:	cf 93       	push	r28
    14aa:	0c e6       	ldi	r16, 0x6C	; 108
    14ac:	13 e0       	ldi	r17, 0x03	; 3
    14ae:	c0 e0       	ldi	r28, 0x00	; 0
    14b0:	96 fd       	sbrc	r25, 6
    14b2:	20 c0       	rjmp	.+64     	; 0x14f4 <_ZL8panMotor5Point+0x54>
    14b4:	89 e0       	ldi	r24, 0x09	; 9
    14b6:	e8 2e       	mov	r14, r24
    14b8:	f1 2c       	mov	r15, r1
    14ba:	f8 01       	movw	r30, r16
    14bc:	81 91       	ld	r24, Z+
    14be:	91 91       	ld	r25, Z+
    14c0:	8f 01       	movw	r16, r30
    14c2:	8c 54       	subi	r24, 0x4C	; 76
    14c4:	94 40       	sbci	r25, 0x04	; 4
    14c6:	b7 01       	movw	r22, r14
    14c8:	0e 94 8c 43 	call	0x8718	; 0x8718 <__udivmodhi4>
    14cc:	81 e7       	ldi	r24, 0x71	; 113
    14ce:	98 e0       	ldi	r25, 0x08	; 8
    14d0:	0e 94 3f 0a 	call	0x147e	; 0x147e <_ZL12osd_printi_1PKci>
    14d4:	c1 30       	cpi	r28, 0x01	; 1
    14d6:	19 f4       	brne	.+6      	; 0x14de <_ZL8panMotor5Point+0x3e>
    14d8:	0e 94 37 0a 	call	0x146e	; 0x146e <_ZL6osd_nlv>
    14dc:	02 c0       	rjmp	.+4      	; 0x14e2 <_ZL8panMotor5Point+0x42>
    14de:	0e 94 33 0a 	call	0x1466	; 0x1466 <_ZL9osd_blankv>
    14e2:	cf 5f       	subi	r28, 0xFF	; 255
    14e4:	c4 30       	cpi	r28, 0x04	; 4
    14e6:	49 f7       	brne	.-46     	; 0x14ba <_ZL8panMotor5Point+0x1a>
    14e8:	12 c0       	rjmp	.+36     	; 0x150e <_ZL8panMotor5Point+0x6e>
    14ea:	0e 94 33 0a 	call	0x1466	; 0x1466 <_ZL9osd_blankv>
    14ee:	cf 5f       	subi	r28, 0xFF	; 255
    14f0:	c4 30       	cpi	r28, 0x04	; 4
    14f2:	69 f0       	breq	.+26     	; 0x150e <_ZL8panMotor5Point+0x6e>
    14f4:	f8 01       	movw	r30, r16
    14f6:	61 91       	ld	r22, Z+
    14f8:	71 91       	ld	r23, Z+
    14fa:	8f 01       	movw	r16, r30
    14fc:	80 e4       	ldi	r24, 0x40	; 64
    14fe:	9a e0       	ldi	r25, 0x0A	; 10
    1500:	0e 94 3f 0a 	call	0x147e	; 0x147e <_ZL12osd_printi_1PKci>
    1504:	c1 30       	cpi	r28, 0x01	; 1
    1506:	89 f7       	brne	.-30     	; 0x14ea <_ZL8panMotor5Point+0x4a>
    1508:	0e 94 37 0a 	call	0x146e	; 0x146e <_ZL6osd_nlv>
    150c:	f0 cf       	rjmp	.-32     	; 0x14ee <_ZL8panMotor5Point+0x4e>
    150e:	cf 91       	pop	r28
    1510:	1f 91       	pop	r17
    1512:	0f 91       	pop	r16
    1514:	ff 90       	pop	r15
    1516:	ef 90       	pop	r14
    1518:	08 95       	ret

0000151a <_ZL7panDate5Point>:
    151a:	a0 e0       	ldi	r26, 0x00	; 0
    151c:	b0 e0       	ldi	r27, 0x00	; 0
    151e:	e3 e9       	ldi	r30, 0x93	; 147
    1520:	fa e0       	ldi	r31, 0x0A	; 10
    1522:	0c 94 73 44 	jmp	0x88e6	; 0x88e6 <__prologue_saves__+0x14>
    1526:	d9 2f       	mov	r29, r25
    1528:	00 91 8a 03 	lds	r16, 0x038A	; 0x80038a <sys_days>
    152c:	10 91 8b 03 	lds	r17, 0x038B	; 0x80038b <sys_days+0x1>
    1530:	20 91 8c 03 	lds	r18, 0x038C	; 0x80038c <sys_days+0x2>
    1534:	30 91 8d 03 	lds	r19, 0x038D	; 0x80038d <sys_days+0x3>
    1538:	80 91 cf 03 	lds	r24, 0x03CF	; 0x8003cf <lflags+0x1b>
    153c:	88 23       	and	r24, r24
    153e:	09 f4       	brne	.+2      	; 0x1542 <_ZL7panDate5Point+0x28>
    1540:	78 c0       	rjmp	.+240    	; 0x1632 <_ZL7panDate5Point+0x118>
    1542:	82 eb       	ldi	r24, 0xB2	; 178
    1544:	e8 2e       	mov	r14, r24
    1546:	87 e0       	ldi	r24, 0x07	; 7
    1548:	f8 2e       	mov	r15, r24
    154a:	e4 e6       	ldi	r30, 0x64	; 100
    154c:	f0 e0       	ldi	r31, 0x00	; 0
    154e:	90 e9       	ldi	r25, 0x90	; 144
    1550:	c9 2e       	mov	r12, r25
    1552:	dd 24       	eor	r13, r13
    1554:	d3 94       	inc	r13
    1556:	c7 01       	movw	r24, r14
    1558:	83 70       	andi	r24, 0x03	; 3
    155a:	99 27       	eor	r25, r25
    155c:	89 2b       	or	r24, r25
    155e:	81 f4       	brne	.+32     	; 0x1580 <_ZL7panDate5Point+0x66>
    1560:	c7 01       	movw	r24, r14
    1562:	bf 01       	movw	r22, r30
    1564:	0e 94 8c 43 	call	0x8718	; 0x8718 <__udivmodhi4>
    1568:	89 2b       	or	r24, r25
    156a:	31 f4       	brne	.+12     	; 0x1578 <_ZL7panDate5Point+0x5e>
    156c:	c7 01       	movw	r24, r14
    156e:	b6 01       	movw	r22, r12
    1570:	0e 94 8c 43 	call	0x8718	; 0x8718 <__udivmodhi4>
    1574:	89 2b       	or	r24, r25
    1576:	21 f4       	brne	.+8      	; 0x1580 <_ZL7panDate5Point+0x66>
    1578:	61 e0       	ldi	r22, 0x01	; 1
    157a:	8e e6       	ldi	r24, 0x6E	; 110
    157c:	91 e0       	ldi	r25, 0x01	; 1
    157e:	03 c0       	rjmp	.+6      	; 0x1586 <_ZL7panDate5Point+0x6c>
    1580:	60 e0       	ldi	r22, 0x00	; 0
    1582:	8d e6       	ldi	r24, 0x6D	; 109
    1584:	91 e0       	ldi	r25, 0x01	; 1
    1586:	a0 e0       	ldi	r26, 0x00	; 0
    1588:	b0 e0       	ldi	r27, 0x00	; 0
    158a:	08 17       	cp	r16, r24
    158c:	19 07       	cpc	r17, r25
    158e:	2a 07       	cpc	r18, r26
    1590:	3b 07       	cpc	r19, r27
    1592:	18 f4       	brcc	.+6      	; 0x159a <_ZL7panDate5Point+0x80>
    1594:	40 e0       	ldi	r20, 0x00	; 0
    1596:	50 e0       	ldi	r21, 0x00	; 0
    1598:	08 c0       	rjmp	.+16     	; 0x15aa <_ZL7panDate5Point+0x90>
    159a:	08 1b       	sub	r16, r24
    159c:	19 0b       	sbc	r17, r25
    159e:	2a 0b       	sbc	r18, r26
    15a0:	3b 0b       	sbc	r19, r27
    15a2:	8f ef       	ldi	r24, 0xFF	; 255
    15a4:	e8 1a       	sub	r14, r24
    15a6:	f8 0a       	sbc	r15, r24
    15a8:	d6 cf       	rjmp	.-84     	; 0x1556 <_ZL7panDate5Point+0x3c>
    15aa:	c4 2f       	mov	r28, r20
    15ac:	fa 01       	movw	r30, r20
    15ae:	e0 5e       	subi	r30, 0xE0	; 224
    15b0:	fb 4f       	sbci	r31, 0xFB	; 251
    15b2:	e4 91       	lpm	r30, Z
    15b4:	41 30       	cpi	r20, 0x01	; 1
    15b6:	51 05       	cpc	r21, r1
    15b8:	11 f4       	brne	.+4      	; 0x15be <_ZL7panDate5Point+0xa4>
    15ba:	61 11       	cpse	r22, r1
    15bc:	ef 5f       	subi	r30, 0xFF	; 255
    15be:	8e 2f       	mov	r24, r30
    15c0:	90 e0       	ldi	r25, 0x00	; 0
    15c2:	a0 e0       	ldi	r26, 0x00	; 0
    15c4:	b0 e0       	ldi	r27, 0x00	; 0
    15c6:	08 17       	cp	r16, r24
    15c8:	19 07       	cpc	r17, r25
    15ca:	2a 07       	cpc	r18, r26
    15cc:	3b 07       	cpc	r19, r27
    15ce:	50 f0       	brcs	.+20     	; 0x15e4 <_ZL7panDate5Point+0xca>
    15d0:	08 1b       	sub	r16, r24
    15d2:	19 0b       	sbc	r17, r25
    15d4:	2a 0b       	sbc	r18, r26
    15d6:	3b 0b       	sbc	r19, r27
    15d8:	4f 5f       	subi	r20, 0xFF	; 255
    15da:	5f 4f       	sbci	r21, 0xFF	; 255
    15dc:	4c 30       	cpi	r20, 0x0C	; 12
    15de:	51 05       	cpc	r21, r1
    15e0:	21 f7       	brne	.-56     	; 0x15aa <_ZL7panDate5Point+0x90>
    15e2:	cc e0       	ldi	r28, 0x0C	; 12
    15e4:	8d 2f       	mov	r24, r29
    15e6:	0f 5f       	subi	r16, 0xFF	; 255
    15e8:	1f 4f       	sbci	r17, 0xFF	; 255
    15ea:	d0 e0       	ldi	r29, 0x00	; 0
    15ec:	86 ff       	sbrs	r24, 6
    15ee:	10 c0       	rjmp	.+32     	; 0x1610 <_ZL7panDate5Point+0xf6>
    15f0:	b8 01       	movw	r22, r16
    15f2:	81 e7       	ldi	r24, 0x71	; 113
    15f4:	98 e0       	ldi	r25, 0x08	; 8
    15f6:	0e 94 3f 0a 	call	0x147e	; 0x147e <_ZL12osd_printi_1PKci>
    15fa:	be 01       	movw	r22, r28
    15fc:	6f 5f       	subi	r22, 0xFF	; 255
    15fe:	7f 4f       	sbci	r23, 0xFF	; 255
    1600:	80 e7       	ldi	r24, 0x70	; 112
    1602:	98 e0       	ldi	r25, 0x08	; 8
    1604:	0e 94 3f 0a 	call	0x147e	; 0x147e <_ZL12osd_printi_1PKci>
    1608:	b7 01       	movw	r22, r14
    160a:	8b e1       	ldi	r24, 0x1B	; 27
    160c:	94 e0       	ldi	r25, 0x04	; 4
    160e:	0f c0       	rjmp	.+30     	; 0x162e <_ZL7panDate5Point+0x114>
    1610:	b7 01       	movw	r22, r14
    1612:	80 e4       	ldi	r24, 0x40	; 64
    1614:	9a e0       	ldi	r25, 0x0A	; 10
    1616:	0e 94 3f 0a 	call	0x147e	; 0x147e <_ZL12osd_printi_1PKci>
    161a:	be 01       	movw	r22, r28
    161c:	6f 5f       	subi	r22, 0xFF	; 255
    161e:	7f 4f       	sbci	r23, 0xFF	; 255
    1620:	80 e7       	ldi	r24, 0x70	; 112
    1622:	98 e0       	ldi	r25, 0x08	; 8
    1624:	0e 94 3f 0a 	call	0x147e	; 0x147e <_ZL12osd_printi_1PKci>
    1628:	b8 01       	movw	r22, r16
    162a:	80 e7       	ldi	r24, 0x70	; 112
    162c:	98 e0       	ldi	r25, 0x08	; 8
    162e:	0e 94 3f 0a 	call	0x147e	; 0x147e <_ZL12osd_printi_1PKci>
    1632:	cd b7       	in	r28, 0x3d	; 61
    1634:	de b7       	in	r29, 0x3e	; 62
    1636:	e8 e0       	ldi	r30, 0x08	; 8
    1638:	0c 94 8f 44 	jmp	0x891e	; 0x891e <__epilogue_restores__+0x14>

0000163c <_ZL13panFlightMode5Point>:
    163c:	80 91 5b 06 	lds	r24, 0x065B	; 0x80065b <_ZL13osd_autopilot>
    1640:	8e 30       	cpi	r24, 0x0E	; 14
    1642:	c1 f4       	brne	.+48     	; 0x1674 <_ZL13panFlightMode5Point+0x38>
    1644:	20 91 ae 06 	lds	r18, 0x06AE	; 0x8006ae <_ZL8osd_mode>
    1648:	30 e0       	ldi	r19, 0x00	; 0
    164a:	87 e0       	ldi	r24, 0x07	; 7
    164c:	90 e0       	ldi	r25, 0x00	; 0
    164e:	48 2f       	mov	r20, r24
    1650:	b9 01       	movw	r22, r18
    1652:	08 2e       	mov	r0, r24
    1654:	02 c0       	rjmp	.+4      	; 0x165a <_ZL13panFlightMode5Point+0x1e>
    1656:	75 95       	asr	r23
    1658:	67 95       	ror	r22
    165a:	0a 94       	dec	r0
    165c:	e2 f7       	brpl	.-8      	; 0x1656 <_ZL13panFlightMode5Point+0x1a>
    165e:	60 fd       	sbrc	r22, 0
    1660:	03 c0       	rjmp	.+6      	; 0x1668 <_ZL13panFlightMode5Point+0x2c>
    1662:	01 97       	sbiw	r24, 0x01	; 1
    1664:	a0 f7       	brcc	.-24     	; 0x164e <_ZL13panFlightMode5Point+0x12>
    1666:	48 e0       	ldi	r20, 0x08	; 8
    1668:	40 93 ae 06 	sts	0x06AE, r20	; 0x8006ae <_ZL8osd_mode>
    166c:	89 e0       	ldi	r24, 0x09	; 9
    166e:	eb e7       	ldi	r30, 0x7B	; 123
    1670:	f8 e0       	ldi	r31, 0x08	; 8
    1672:	0b c0       	rjmp	.+22     	; 0x168a <_ZL13panFlightMode5Point+0x4e>
    1674:	80 91 5d 04 	lds	r24, 0x045D	; 0x80045d <sets+0x4>
    1678:	88 23       	and	r24, r24
    167a:	21 f0       	breq	.+8      	; 0x1684 <_ZL13panFlightMode5Point+0x48>
    167c:	83 e1       	ldi	r24, 0x13	; 19
    167e:	e5 ef       	ldi	r30, 0xF5	; 245
    1680:	f8 e0       	ldi	r31, 0x08	; 8
    1682:	03 c0       	rjmp	.+6      	; 0x168a <_ZL13panFlightMode5Point+0x4e>
    1684:	84 e1       	ldi	r24, 0x14	; 20
    1686:	eb e9       	ldi	r30, 0x9B	; 155
    1688:	f8 e0       	ldi	r31, 0x08	; 8
    168a:	90 91 ae 06 	lds	r25, 0x06AE	; 0x8006ae <_ZL8osd_mode>
    168e:	69 2f       	mov	r22, r25
    1690:	70 e0       	ldi	r23, 0x00	; 0
    1692:	98 17       	cp	r25, r24
    1694:	40 f4       	brcc	.+16     	; 0x16a6 <_ZL13panFlightMode5Point+0x6a>
    1696:	cb 01       	movw	r24, r22
    1698:	88 0f       	add	r24, r24
    169a:	99 1f       	adc	r25, r25
    169c:	e8 0f       	add	r30, r24
    169e:	f9 1f       	adc	r31, r25
    16a0:	85 91       	lpm	r24, Z+
    16a2:	94 91       	lpm	r25, Z
    16a4:	02 c0       	rjmp	.+4      	; 0x16aa <_ZL13panFlightMode5Point+0x6e>
    16a6:	88 e3       	ldi	r24, 0x38	; 56
    16a8:	99 e0       	ldi	r25, 0x09	; 9
    16aa:	0e 94 3f 0a 	call	0x147e	; 0x147e <_ZL12osd_printi_1PKci>
    16ae:	80 91 bb 03 	lds	r24, 0x03BB	; 0x8003bb <lflags+0x7>
    16b2:	88 23       	and	r24, r24
    16b4:	19 f0       	breq	.+6      	; 0x16bc <_ZL13panFlightMode5Point+0x80>
    16b6:	86 e8       	ldi	r24, 0x86	; 134
    16b8:	0e 94 bd 08 	call	0x117a	; 0x117a <_ZN3OSD7write_SEh>
    16bc:	08 95       	ret

000016be <_ZL10panHomeDir5Point>:
    16be:	cf 93       	push	r28
    16c0:	80 91 c2 03 	lds	r24, 0x03C2	; 0x8003c2 <lflags+0xe>
    16c4:	88 23       	and	r24, r24
    16c6:	71 f0       	breq	.+28     	; 0x16e4 <_ZL10panHomeDir5Point+0x26>
    16c8:	c9 2f       	mov	r28, r25
    16ca:	80 91 86 06 	lds	r24, 0x0686	; 0x800686 <_ZL18osd_home_direction>
    16ce:	0e 94 1a 0a 	call	0x1434	; 0x1434 <_ZL9showArrowh>
    16d2:	c6 ff       	sbrs	r28, 6
    16d4:	07 c0       	rjmp	.+14     	; 0x16e4 <_ZL10panHomeDir5Point+0x26>
    16d6:	60 91 86 06 	lds	r22, 0x0686	; 0x800686 <_ZL18osd_home_direction>
    16da:	70 e0       	ldi	r23, 0x00	; 0
    16dc:	8c e3       	ldi	r24, 0x3C	; 60
    16de:	9a e0       	ldi	r25, 0x0A	; 10
    16e0:	0e 94 3f 0a 	call	0x147e	; 0x147e <_ZL12osd_printi_1PKci>
    16e4:	cf 91       	pop	r28
    16e6:	08 95       	ret

000016e8 <_ZL9panGPSats5Point>:
    16e8:	1f 93       	push	r17
    16ea:	cf 93       	push	r28
    16ec:	df 93       	push	r29
    16ee:	c8 2f       	mov	r28, r24
    16f0:	19 2f       	mov	r17, r25
    16f2:	80 91 8f 06 	lds	r24, 0x068F	; 0x80068f <_ZL12osd_fix_type>
    16f6:	82 30       	cpi	r24, 0x02	; 2
    16f8:	19 f0       	breq	.+6      	; 0x1700 <_ZL9panGPSats5Point+0x18>
    16fa:	20 f0       	brcs	.+8      	; 0x1704 <_ZL9panGPSats5Point+0x1c>
    16fc:	df e0       	ldi	r29, 0x0F	; 15
    16fe:	03 c0       	rjmp	.+6      	; 0x1706 <_ZL9panGPSats5Point+0x1e>
    1700:	df e1       	ldi	r29, 0x1F	; 31
    1702:	01 c0       	rjmp	.+2      	; 0x1706 <_ZL9panGPSats5Point+0x1e>
    1704:	da e2       	ldi	r29, 0x2A	; 42
    1706:	80 91 cf 06 	lds	r24, 0x06CF	; 0x8006cf <_ZL3eph>
    170a:	90 91 d0 06 	lds	r25, 0x06D0	; 0x8006d0 <_ZL3eph+0x1>
    170e:	88 3c       	cpi	r24, 0xC8	; 200
    1710:	91 05       	cpc	r25, r1
    1712:	20 f0       	brcs	.+8      	; 0x171c <_ZL9panGPSats5Point+0x34>
    1714:	80 91 c0 03 	lds	r24, 0x03C0	; 0x8003c0 <lflags+0xc>
    1718:	81 11       	cpse	r24, r1
    171a:	d0 e2       	ldi	r29, 0x20	; 32
    171c:	c0 95       	com	r28
    171e:	cc 1f       	adc	r28, r28
    1720:	cc 27       	eor	r28, r28
    1722:	cc 1f       	adc	r28, r28
    1724:	11 f0       	breq	.+4      	; 0x172a <_ZL9panGPSats5Point+0x42>
    1726:	16 ff       	sbrs	r17, 6
    1728:	0f c0       	rjmp	.+30     	; 0x1748 <_ZL9panGPSats5Point+0x60>
    172a:	60 91 90 06 	lds	r22, 0x0690	; 0x800690 <_ZL22osd_satellites_visible>
    172e:	70 e0       	ldi	r23, 0x00	; 0
    1730:	88 e3       	ldi	r24, 0x38	; 56
    1732:	9a e0       	ldi	r25, 0x0A	; 10
    1734:	0e 94 3f 0a 	call	0x147e	; 0x147e <_ZL12osd_printi_1PKci>
    1738:	cc 23       	and	r28, r28
    173a:	51 f0       	breq	.+20     	; 0x1750 <_ZL9panGPSats5Point+0x68>
    173c:	16 ff       	sbrs	r17, 6
    173e:	08 c0       	rjmp	.+16     	; 0x1750 <_ZL9panGPSats5Point+0x68>
    1740:	8d 2f       	mov	r24, r29
    1742:	0e 94 bd 08 	call	0x117a	; 0x117a <_ZN3OSD7write_SEh>
    1746:	04 c0       	rjmp	.+8      	; 0x1750 <_ZL9panGPSats5Point+0x68>
    1748:	8d 2f       	mov	r24, r29
    174a:	0e 94 bd 08 	call	0x117a	; 0x117a <_ZN3OSD7write_SEh>
    174e:	ed cf       	rjmp	.-38     	; 0x172a <_ZL9panGPSats5Point+0x42>
    1750:	df 91       	pop	r29
    1752:	cf 91       	pop	r28
    1754:	1f 91       	pop	r17
    1756:	08 95       	ret

00001758 <_ZL7panRoll5Point>:
    1758:	60 91 35 04 	lds	r22, 0x0435	; 0x800435 <osd_att+0x2>
    175c:	70 91 36 04 	lds	r23, 0x0436	; 0x800436 <osd_att+0x3>
    1760:	83 e1       	ldi	r24, 0x13	; 19
    1762:	93 e0       	ldi	r25, 0x03	; 3
    1764:	0e 94 3f 0a 	call	0x147e	; 0x147e <_ZL12osd_printi_1PKci>
    1768:	08 95       	ret

0000176a <_ZL8panPitch5Point>:
    176a:	60 91 33 04 	lds	r22, 0x0433	; 0x800433 <osd_att>
    176e:	70 91 34 04 	lds	r23, 0x0434	; 0x800434 <osd_att+0x1>
    1772:	8d e0       	ldi	r24, 0x0D	; 13
    1774:	93 e0       	ldi	r25, 0x03	; 3
    1776:	0e 94 3f 0a 	call	0x147e	; 0x147e <_ZL12osd_printi_1PKci>
    177a:	08 95       	ret

0000177c <_ZL17panBatteryPercent5Point>:
    177c:	1f 93       	push	r17
    177e:	cf 93       	push	r28
    1780:	df 93       	push	r29
    1782:	38 2f       	mov	r19, r24
    1784:	19 2f       	mov	r17, r25
    1786:	20 91 b4 06 	lds	r18, 0x06B4	; 0x8006b4 <_ZL19max_battery_reading>
    178a:	2f 55       	subi	r18, 0x5F	; 95
    178c:	c0 91 b6 06 	lds	r28, 0x06B6	; 0x8006b6 <_ZL23osd_battery_remaining_A>
    1790:	26 30       	cpi	r18, 0x06	; 6
    1792:	08 f0       	brcs	.+2      	; 0x1796 <_ZL17panBatteryPercent5Point+0x1a>
    1794:	4b c0       	rjmp	.+150    	; 0x182c <_ZL17panBatteryPercent5Point+0xb0>
    1796:	d0 e0       	ldi	r29, 0x00	; 0
    1798:	80 e0       	ldi	r24, 0x00	; 0
    179a:	9c 2f       	mov	r25, r28
    179c:	64 e6       	ldi	r22, 0x64	; 100
    179e:	70 e0       	ldi	r23, 0x00	; 0
    17a0:	0e 94 8c 43 	call	0x8718	; 0x8718 <__udivmodhi4>
    17a4:	cb 01       	movw	r24, r22
    17a6:	61 38       	cpi	r22, 0x81	; 129
    17a8:	71 05       	cpc	r23, r1
    17aa:	40 f0       	brcs	.+16     	; 0x17bc <_ZL17panBatteryPercent5Point+0x40>
    17ac:	29 e8       	ldi	r18, 0x89	; 137
    17ae:	20 93 14 01 	sts	0x0114, r18	; 0x800114 <_ZL17osd_battery_pic_A>
    17b2:	80 58       	subi	r24, 0x80	; 128
    17b4:	91 09       	sbc	r25, r1
    17b6:	e5 e1       	ldi	r30, 0x15	; 21
    17b8:	f1 e0       	ldi	r31, 0x01	; 1
    17ba:	12 c0       	rjmp	.+36     	; 0x17e0 <_ZL17panBatteryPercent5Point+0x64>
    17bc:	2d e8       	ldi	r18, 0x8D	; 141
    17be:	20 93 15 01 	sts	0x0115, r18	; 0x800115 <_ZL17osd_battery_pic_A+0x1>
    17c2:	62 31       	cpi	r22, 0x12	; 18
    17c4:	71 05       	cpc	r23, r1
    17c6:	50 f4       	brcc	.+20     	; 0x17dc <_ZL17panBatteryPercent5Point+0x60>
    17c8:	20 91 c0 03 	lds	r18, 0x03C0	; 0x8003c0 <lflags+0xc>
    17cc:	22 23       	and	r18, r18
    17ce:	31 f0       	breq	.+12     	; 0x17dc <_ZL17panBatteryPercent5Point+0x60>
    17d0:	20 e2       	ldi	r18, 0x20	; 32
    17d2:	20 93 14 01 	sts	0x0114, r18	; 0x800114 <_ZL17osd_battery_pic_A>
    17d6:	20 93 15 01 	sts	0x0115, r18	; 0x800115 <_ZL17osd_battery_pic_A+0x1>
    17da:	09 c0       	rjmp	.+18     	; 0x17ee <_ZL17panBatteryPercent5Point+0x72>
    17dc:	e4 e1       	ldi	r30, 0x14	; 20
    17de:	f1 e0       	ldi	r31, 0x01	; 1
    17e0:	6a e1       	ldi	r22, 0x1A	; 26
    17e2:	70 e0       	ldi	r23, 0x00	; 0
    17e4:	0e 94 8c 43 	call	0x8718	; 0x8718 <__udivmodhi4>
    17e8:	2d e8       	ldi	r18, 0x8D	; 141
    17ea:	26 1b       	sub	r18, r22
    17ec:	20 83       	st	Z, r18
    17ee:	37 ff       	sbrs	r19, 7
    17f0:	0e 94 07 0a 	call	0x140e	; 0x140e <_ZL13osd_print_batv>
    17f4:	16 ff       	sbrs	r17, 6
    17f6:	08 c0       	rjmp	.+16     	; 0x1808 <_ZL17panBatteryPercent5Point+0x8c>
    17f8:	be 01       	movw	r22, r28
    17fa:	88 e3       	ldi	r24, 0x38	; 56
    17fc:	9a e0       	ldi	r25, 0x0A	; 10
    17fe:	0e 94 3f 0a 	call	0x147e	; 0x147e <_ZL12osd_printi_1PKci>
    1802:	0e 94 2f 0a 	call	0x145e	; 0x145e <_ZL11osd_percentv>
    1806:	1c c0       	rjmp	.+56     	; 0x1840 <_ZL17panBatteryPercent5Point+0xc4>
    1808:	60 91 ee 06 	lds	r22, 0x06EE	; 0x8006ee <_ZL8mah_used>
    180c:	70 91 ef 06 	lds	r23, 0x06EF	; 0x8006ef <_ZL8mah_used+0x1>
    1810:	80 91 f0 06 	lds	r24, 0x06F0	; 0x8006f0 <_ZL8mah_used+0x2>
    1814:	90 91 f1 06 	lds	r25, 0x06F1	; 0x8006f1 <_ZL8mah_used+0x3>
    1818:	0e 94 12 41 	call	0x8224	; 0x8224 <__fixsfsi>
    181c:	80 e4       	ldi	r24, 0x40	; 64
    181e:	9a e0       	ldi	r25, 0x0A	; 10
    1820:	0e 94 3f 0a 	call	0x147e	; 0x147e <_ZL12osd_printi_1PKci>
    1824:	81 e0       	ldi	r24, 0x01	; 1
    1826:	0e 94 bd 08 	call	0x117a	; 0x117a <_ZN3OSD7write_SEh>
    182a:	0a c0       	rjmp	.+20     	; 0x1840 <_ZL17panBatteryPercent5Point+0xc4>
    182c:	24 e6       	ldi	r18, 0x64	; 100
    182e:	c2 9f       	mul	r28, r18
    1830:	c0 01       	movw	r24, r0
    1832:	11 24       	eor	r1, r1
    1834:	6f ef       	ldi	r22, 0xFF	; 255
    1836:	70 e0       	ldi	r23, 0x00	; 0
    1838:	0e 94 a0 43 	call	0x8740	; 0x8740 <__divmodhi4>
    183c:	eb 01       	movw	r28, r22
    183e:	ac cf       	rjmp	.-168    	; 0x1798 <_ZL17panBatteryPercent5Point+0x1c>
    1840:	df 91       	pop	r29
    1842:	cf 91       	pop	r28
    1844:	1f 91       	pop	r17
    1846:	08 95       	ret

00001848 <_ZL6panThr5Point>:
    1848:	60 91 65 06 	lds	r22, 0x0665	; 0x800665 <_ZL12osd_throttle>
    184c:	70 e0       	ldi	r23, 0x00	; 0
    184e:	8c e3       	ldi	r24, 0x3C	; 60
    1850:	9a e0       	ldi	r25, 0x0A	; 10
    1852:	0e 94 3f 0a 	call	0x147e	; 0x147e <_ZL12osd_printi_1PKci>
    1856:	0e 94 2f 0a 	call	0x145e	; 0x145e <_ZL11osd_percentv>
    185a:	08 95       	ret

0000185c <_ZL9printTimejhh>:
    185c:	ef 92       	push	r14
    185e:	ff 92       	push	r15
    1860:	0f 93       	push	r16
    1862:	1f 93       	push	r17
    1864:	cf 93       	push	r28
    1866:	df 93       	push	r29
    1868:	8c 01       	movw	r16, r24
    186a:	d6 2f       	mov	r29, r22
    186c:	c4 2f       	mov	r28, r20
    186e:	6c e3       	ldi	r22, 0x3C	; 60
    1870:	70 e0       	ldi	r23, 0x00	; 0
    1872:	0e 94 8c 43 	call	0x8718	; 0x8718 <__udivmodhi4>
    1876:	7c 01       	movw	r14, r24
    1878:	8c e3       	ldi	r24, 0x3C	; 60
    187a:	9a e0       	ldi	r25, 0x0A	; 10
    187c:	0e 94 3f 0a 	call	0x147e	; 0x147e <_ZL12osd_printi_1PKci>
    1880:	cc 23       	and	r28, r28
    1882:	49 f0       	breq	.+18     	; 0x1896 <_ZL9printTimejhh+0x3a>
    1884:	b7 01       	movw	r22, r14
    1886:	82 e3       	ldi	r24, 0x32	; 50
    1888:	94 e0       	ldi	r25, 0x04	; 4
    188a:	0e 94 3f 0a 	call	0x147e	; 0x147e <_ZL12osd_printi_1PKci>
    188e:	cf 77       	andi	r28, 0x7F	; 127
    1890:	6c 2f       	mov	r22, r28
    1892:	70 e0       	ldi	r23, 0x00	; 0
    1894:	11 c0       	rjmp	.+34     	; 0x18b8 <_ZL9printTimejhh+0x5c>
    1896:	dd 23       	and	r29, r29
    1898:	31 f0       	breq	.+12     	; 0x18a6 <_ZL9printTimejhh+0x4a>
    189a:	80 91 c0 03 	lds	r24, 0x03C0	; 0x8003c0 <lflags+0xc>
    189e:	88 23       	and	r24, r24
    18a0:	11 f0       	breq	.+4      	; 0x18a6 <_ZL9printTimejhh+0x4a>
    18a2:	80 e2       	ldi	r24, 0x20	; 32
    18a4:	01 c0       	rjmp	.+2      	; 0x18a8 <_ZL9printTimejhh+0x4c>
    18a6:	8a e3       	ldi	r24, 0x3A	; 58
    18a8:	0e 94 bd 08 	call	0x117a	; 0x117a <_ZN3OSD7write_SEh>
    18ac:	c8 01       	movw	r24, r16
    18ae:	6c e3       	ldi	r22, 0x3C	; 60
    18b0:	70 e0       	ldi	r23, 0x00	; 0
    18b2:	0e 94 8c 43 	call	0x8718	; 0x8718 <__udivmodhi4>
    18b6:	bc 01       	movw	r22, r24
    18b8:	8c e2       	ldi	r24, 0x2C	; 44
    18ba:	94 e0       	ldi	r25, 0x04	; 4
    18bc:	0e 94 3f 0a 	call	0x147e	; 0x147e <_ZL12osd_printi_1PKci>
    18c0:	cd b7       	in	r28, 0x3d	; 61
    18c2:	de b7       	in	r29, 0x3e	; 62
    18c4:	e6 e0       	ldi	r30, 0x06	; 6
    18c6:	0c 94 91 44 	jmp	0x8922	; 0x8922 <__epilogue_restores__+0x18>

000018ca <_ZL10panDayTime5Point>:
    18ca:	cf 93       	push	r28
    18cc:	80 91 cf 03 	lds	r24, 0x03CF	; 0x8003cf <lflags+0x1b>
    18d0:	88 23       	and	r24, r24
    18d2:	e9 f0       	breq	.+58     	; 0x190e <_ZL10panDayTime5Point+0x44>
    18d4:	c9 2f       	mov	r28, r25
    18d6:	60 91 86 03 	lds	r22, 0x0386	; 0x800386 <day_seconds>
    18da:	70 91 87 03 	lds	r23, 0x0387	; 0x800387 <day_seconds+0x1>
    18de:	80 91 88 03 	lds	r24, 0x0388	; 0x800388 <day_seconds+0x2>
    18e2:	90 91 89 03 	lds	r25, 0x0389	; 0x800389 <day_seconds+0x3>
    18e6:	2c e3       	ldi	r18, 0x3C	; 60
    18e8:	30 e0       	ldi	r19, 0x00	; 0
    18ea:	40 e0       	ldi	r20, 0x00	; 0
    18ec:	50 e0       	ldi	r21, 0x00	; 0
    18ee:	0e 94 b4 43 	call	0x8768	; 0x8768 <__udivmodsi4>
    18f2:	da 01       	movw	r26, r20
    18f4:	c9 01       	movw	r24, r18
    18f6:	c5 ff       	sbrs	r28, 5
    18f8:	04 c0       	rjmp	.+8      	; 0x1902 <_ZL10panDayTime5Point+0x38>
    18fa:	46 2f       	mov	r20, r22
    18fc:	40 68       	ori	r20, 0x80	; 128
    18fe:	60 e0       	ldi	r22, 0x00	; 0
    1900:	04 c0       	rjmp	.+8      	; 0x190a <_ZL10panDayTime5Point+0x40>
    1902:	c6 fb       	bst	r28, 6
    1904:	66 27       	eor	r22, r22
    1906:	60 f9       	bld	r22, 0
    1908:	40 e0       	ldi	r20, 0x00	; 0
    190a:	0e 94 2e 0c 	call	0x185c	; 0x185c <_ZL9printTimejhh>
    190e:	cf 91       	pop	r28
    1910:	08 95       	ret

00001912 <_ZL9printTimei>:
    1912:	40 e0       	ldi	r20, 0x00	; 0
    1914:	60 e0       	ldi	r22, 0x00	; 0
    1916:	0e 94 2e 0c 	call	0x185c	; 0x185c <_ZL9printTimejhh>
    191a:	08 95       	ret

0000191c <_ZL12osd_printf_2PKcfh>:
    191c:	cf 93       	push	r28
    191e:	c2 2f       	mov	r28, r18
    1920:	7f 93       	push	r23
    1922:	6f 93       	push	r22
    1924:	5f 93       	push	r21
    1926:	4f 93       	push	r20
    1928:	9f 93       	push	r25
    192a:	8f 93       	push	r24
    192c:	88 e6       	ldi	r24, 0x68	; 104
    192e:	93 e0       	ldi	r25, 0x03	; 3
    1930:	9f 93       	push	r25
    1932:	8f 93       	push	r24
    1934:	0e 94 e3 3a 	call	0x75c6	; 0x75c6 <_ZN12BetterStream9_printf_PEPKcz>
    1938:	8d b7       	in	r24, 0x3d	; 61
    193a:	9e b7       	in	r25, 0x3e	; 62
    193c:	08 96       	adiw	r24, 0x08	; 8
    193e:	0f b6       	in	r0, 0x3f	; 63
    1940:	f8 94       	cli
    1942:	9e bf       	out	0x3e, r25	; 62
    1944:	0f be       	out	0x3f, r0	; 63
    1946:	8d bf       	out	0x3d, r24	; 61
    1948:	cc 23       	and	r28, r28
    194a:	19 f0       	breq	.+6      	; 0x1952 <_ZL12osd_printf_2PKcfh+0x36>
    194c:	8c 2f       	mov	r24, r28
    194e:	0e 94 bd 08 	call	0x117a	; 0x117a <_ZN3OSD7write_SEh>
    1952:	cf 91       	pop	r28
    1954:	08 95       	ret

00001956 <_ZL7panTemp5Point>:
    1956:	a0 e0       	ldi	r26, 0x00	; 0
    1958:	b0 e0       	ldi	r27, 0x00	; 0
    195a:	e1 eb       	ldi	r30, 0xB1	; 177
    195c:	fc e0       	ldi	r31, 0x0C	; 12
    195e:	0c 94 73 44 	jmp	0x88e6	; 0x88e6 <__prologue_saves__+0x14>
    1962:	80 91 bd 06 	lds	r24, 0x06BD	; 0x8006bd <_ZL7measure>
    1966:	90 91 be 06 	lds	r25, 0x06BE	; 0x8006be <_ZL7measure+0x1>
    196a:	fc 01       	movw	r30, r24
    196c:	3a 96       	adiw	r30, 0x0a	; 10
    196e:	d4 91       	lpm	r29, Z
    1970:	32 96       	adiw	r30, 0x02	; 2
    1972:	c4 91       	lpm	r28, Z
    1974:	0d 96       	adiw	r24, 0x0d	; 13
    1976:	fc 01       	movw	r30, r24
    1978:	05 91       	lpm	r16, Z+
    197a:	14 91       	lpm	r17, Z
    197c:	60 91 b1 06 	lds	r22, 0x06B1	; 0x8006b1 <_ZL11temperature>
    1980:	70 91 b2 06 	lds	r23, 0x06B2	; 0x8006b2 <_ZL11temperature+0x1>
    1984:	80 e0       	ldi	r24, 0x00	; 0
    1986:	90 e0       	ldi	r25, 0x00	; 0
    1988:	0e 94 48 41 	call	0x8290	; 0x8290 <__floatunsisf>
    198c:	2d ec       	ldi	r18, 0xCD	; 205
    198e:	3c ec       	ldi	r19, 0xCC	; 204
    1990:	4c ec       	ldi	r20, 0xCC	; 204
    1992:	5d e3       	ldi	r21, 0x3D	; 61
    1994:	0e 94 6d 42 	call	0x84da	; 0x84da <__mulsf3>
    1998:	6b 01       	movw	r12, r22
    199a:	7c 01       	movw	r14, r24
    199c:	6c 2f       	mov	r22, r28
    199e:	70 e0       	ldi	r23, 0x00	; 0
    19a0:	80 e0       	ldi	r24, 0x00	; 0
    19a2:	90 e0       	ldi	r25, 0x00	; 0
    19a4:	0e 94 4a 41 	call	0x8294	; 0x8294 <__floatsisf>
    19a8:	9b 01       	movw	r18, r22
    19aa:	ac 01       	movw	r20, r24
    19ac:	c7 01       	movw	r24, r14
    19ae:	b6 01       	movw	r22, r12
    19b0:	0e 94 6d 42 	call	0x84da	; 0x84da <__mulsf3>
    19b4:	6b 01       	movw	r12, r22
    19b6:	7c 01       	movw	r14, r24
    19b8:	b8 01       	movw	r22, r16
    19ba:	80 e0       	ldi	r24, 0x00	; 0
    19bc:	90 e0       	ldi	r25, 0x00	; 0
    19be:	0e 94 48 41 	call	0x8290	; 0x8290 <__floatunsisf>
    19c2:	9b 01       	movw	r18, r22
    19c4:	ac 01       	movw	r20, r24
    19c6:	c7 01       	movw	r24, r14
    19c8:	b6 01       	movw	r22, r12
    19ca:	0e 94 b8 3f 	call	0x7f70	; 0x7f70 <__addsf3>
    19ce:	2a e0       	ldi	r18, 0x0A	; 10
    19d0:	37 ed       	ldi	r19, 0xD7	; 215
    19d2:	43 e2       	ldi	r20, 0x23	; 35
    19d4:	5c e3       	ldi	r21, 0x3C	; 60
    19d6:	0e 94 6d 42 	call	0x84da	; 0x84da <__mulsf3>
    19da:	ab 01       	movw	r20, r22
    19dc:	bc 01       	movw	r22, r24
    19de:	2d 2f       	mov	r18, r29
    19e0:	8a e0       	ldi	r24, 0x0A	; 10
    19e2:	94 e0       	ldi	r25, 0x04	; 4
    19e4:	0e 94 8e 0c 	call	0x191c	; 0x191c <_ZL12osd_printf_2PKcfh>
    19e8:	cd b7       	in	r28, 0x3d	; 61
    19ea:	de b7       	in	r29, 0x3e	; 62
    19ec:	e8 e0       	ldi	r30, 0x08	; 8
    19ee:	0c 94 8f 44 	jmp	0x891e	; 0x891e <__epilogue_restores__+0x14>

000019f2 <_ZL12osd_printf_1PKcf>:
    19f2:	20 e0       	ldi	r18, 0x00	; 0
    19f4:	0e 94 8e 0c 	call	0x191c	; 0x191c <_ZL12osd_printf_2PKcfh>
    19f8:	08 95       	ret

000019fa <_ZL7panHdop5Point>:
    19fa:	60 91 cf 06 	lds	r22, 0x06CF	; 0x8006cf <_ZL3eph>
    19fe:	70 91 d0 06 	lds	r23, 0x06D0	; 0x8006d0 <_ZL3eph+0x1>
    1a02:	80 e0       	ldi	r24, 0x00	; 0
    1a04:	90 e0       	ldi	r25, 0x00	; 0
    1a06:	0e 94 48 41 	call	0x8290	; 0x8290 <__floatunsisf>
    1a0a:	2a e0       	ldi	r18, 0x0A	; 10
    1a0c:	37 ed       	ldi	r19, 0xD7	; 215
    1a0e:	43 e2       	ldi	r20, 0x23	; 35
    1a10:	5c e3       	ldi	r21, 0x3C	; 60
    1a12:	0e 94 6d 42 	call	0x84da	; 0x84da <__mulsf3>
    1a16:	ab 01       	movw	r20, r22
    1a18:	bc 01       	movw	r22, r24
    1a1a:	8c e2       	ldi	r24, 0x2C	; 44
    1a1c:	9a e0       	ldi	r25, 0x0A	; 10
    1a1e:	0e 94 f9 0c 	call	0x19f2	; 0x19f2 <_ZL12osd_printf_1PKcf>
    1a22:	08 95       	ret

00001a24 <_ZL8panPower5Point>:
    1a24:	40 91 55 04 	lds	r20, 0x0455	; 0x800455 <power>
    1a28:	50 91 56 04 	lds	r21, 0x0456	; 0x800456 <power+0x1>
    1a2c:	60 91 57 04 	lds	r22, 0x0457	; 0x800457 <power+0x2>
    1a30:	70 91 58 04 	lds	r23, 0x0458	; 0x800458 <power+0x3>
    1a34:	84 e4       	ldi	r24, 0x44	; 68
    1a36:	9a e0       	ldi	r25, 0x0A	; 10
    1a38:	0e 94 f9 0c 	call	0x19f2	; 0x19f2 <_ZL12osd_printf_1PKcf>
    1a3c:	08 95       	ret

00001a3e <_ZL11showHorizonv>:
    1a3e:	ab e0       	ldi	r26, 0x0B	; 11
    1a40:	b0 e0       	ldi	r27, 0x00	; 0
    1a42:	e5 e2       	ldi	r30, 0x25	; 37
    1a44:	fd e0       	ldi	r31, 0x0D	; 13
    1a46:	0c 94 69 44 	jmp	0x88d2	; 0x88d2 <__prologue_saves__>
    1a4a:	80 91 37 03 	lds	r24, 0x0337	; 0x800337 <_ZN3OSD10video_modeE>
    1a4e:	80 34       	cpi	r24, 0x40	; 64
    1a50:	89 f4       	brne	.+34     	; 0x1a74 <_ZL11showHorizonv+0x36>
    1a52:	80 90 8f 04 	lds	r8, 0x048F	; 0x80048f <sets+0x36>
    1a56:	90 90 90 04 	lds	r9, 0x0490	; 0x800490 <sets+0x37>
    1a5a:	a0 90 91 04 	lds	r10, 0x0491	; 0x800491 <sets+0x38>
    1a5e:	b0 90 92 04 	lds	r11, 0x0492	; 0x800492 <sets+0x39>
    1a62:	c0 90 8b 04 	lds	r12, 0x048B	; 0x80048b <sets+0x32>
    1a66:	d0 90 8c 04 	lds	r13, 0x048C	; 0x80048c <sets+0x33>
    1a6a:	e0 90 8d 04 	lds	r14, 0x048D	; 0x80048d <sets+0x34>
    1a6e:	f0 90 8e 04 	lds	r15, 0x048E	; 0x80048e <sets+0x35>
    1a72:	10 c0       	rjmp	.+32     	; 0x1a94 <_ZL11showHorizonv+0x56>
    1a74:	80 90 97 04 	lds	r8, 0x0497	; 0x800497 <sets+0x3e>
    1a78:	90 90 98 04 	lds	r9, 0x0498	; 0x800498 <sets+0x3f>
    1a7c:	a0 90 99 04 	lds	r10, 0x0499	; 0x800499 <sets+0x40>
    1a80:	b0 90 9a 04 	lds	r11, 0x049A	; 0x80049a <sets+0x41>
    1a84:	c0 90 93 04 	lds	r12, 0x0493	; 0x800493 <sets+0x3a>
    1a88:	d0 90 94 04 	lds	r13, 0x0494	; 0x800494 <sets+0x3b>
    1a8c:	e0 90 95 04 	lds	r14, 0x0495	; 0x800495 <sets+0x3c>
    1a90:	f0 90 96 04 	lds	r15, 0x0496	; 0x800496 <sets+0x3d>
    1a94:	80 91 35 04 	lds	r24, 0x0435	; 0x800435 <osd_att+0x2>
    1a98:	90 91 36 04 	lds	r25, 0x0436	; 0x800436 <osd_att+0x3>
    1a9c:	bc 01       	movw	r22, r24
    1a9e:	99 0f       	add	r25, r25
    1aa0:	88 0b       	sbc	r24, r24
    1aa2:	99 0b       	sbc	r25, r25
    1aa4:	0e 94 4a 41 	call	0x8294	; 0x8294 <__floatsisf>
    1aa8:	9b 01       	movw	r18, r22
    1aaa:	ac 01       	movw	r20, r24
    1aac:	c7 01       	movw	r24, r14
    1aae:	b6 01       	movw	r22, r12
    1ab0:	0e 94 6d 42 	call	0x84da	; 0x84da <__mulsf3>
    1ab4:	6b 01       	movw	r12, r22
    1ab6:	7c 01       	movw	r14, r24
    1ab8:	80 91 ac 03 	lds	r24, 0x03AC	; 0x8003ac <screen_flags>
    1abc:	80 ff       	sbrs	r24, 0
    1abe:	04 c0       	rjmp	.+8      	; 0x1ac8 <_ZL11showHorizonv+0x8a>
    1ac0:	f7 fa       	bst	r15, 7
    1ac2:	f0 94       	com	r15
    1ac4:	f7 f8       	bld	r15, 7
    1ac6:	f0 94       	com	r15
    1ac8:	c7 01       	movw	r24, r14
    1aca:	b6 01       	movw	r22, r12
    1acc:	0e 94 12 41 	call	0x8224	; 0x8224 <__fixsfsi>
    1ad0:	ab 01       	movw	r20, r22
    1ad2:	6a 35       	cpi	r22, 0x5A	; 90
    1ad4:	71 05       	cpc	r23, r1
    1ad6:	40 f0       	brcs	.+16     	; 0x1ae8 <_ZL11showHorizonv+0xaa>
    1ad8:	9b 01       	movw	r18, r22
    1ada:	2d 54       	subi	r18, 0x4D	; 77
    1adc:	3f 4f       	sbci	r19, 0xFF	; 255
    1ade:	29 35       	cpi	r18, 0x59	; 89
    1ae0:	31 05       	cpc	r19, r1
    1ae2:	80 f4       	brcc	.+32     	; 0x1b04 <_ZL11showHorizonv+0xc6>
    1ae4:	77 fd       	sbrc	r23, 7
    1ae6:	a9 01       	movw	r20, r18
    1ae8:	47 34       	cpi	r20, 0x47	; 71
    1aea:	51 05       	cpc	r21, r1
    1aec:	2c f5       	brge	.+74     	; 0x1b38 <_ZL11showHorizonv+0xfa>
    1aee:	4a 31       	cpi	r20, 0x1A	; 26
    1af0:	51 05       	cpc	r21, r1
    1af2:	34 f5       	brge	.+76     	; 0x1b40 <_ZL11showHorizonv+0x102>
    1af4:	4a 30       	cpi	r20, 0x0A	; 10
    1af6:	51 05       	cpc	r21, r1
    1af8:	40 f1       	brcs	.+80     	; 0x1b4a <_ZL11showHorizonv+0x10c>
    1afa:	28 e0       	ldi	r18, 0x08	; 8
    1afc:	2a 87       	std	Y+10, r18	; 0x0a
    1afe:	13 ef       	ldi	r17, 0xF3	; 243
    1b00:	30 ed       	ldi	r19, 0xD0	; 208
    1b02:	27 c0       	rjmp	.+78     	; 0x1b52 <_ZL11showHorizonv+0x114>
    1b04:	6b 35       	cpi	r22, 0x5B	; 91
    1b06:	71 05       	cpc	r23, r1
    1b08:	1c f0       	brlt	.+6      	; 0x1b10 <_ZL11showHorizonv+0xd2>
    1b0a:	ab 01       	movw	r20, r22
    1b0c:	43 5b       	subi	r20, 0xB3	; 179
    1b0e:	51 09       	sbc	r21, r1
    1b10:	ca 01       	movw	r24, r20
    1b12:	57 ff       	sbrs	r21, 7
    1b14:	03 c0       	rjmp	.+6      	; 0x1b1c <_ZL11showHorizonv+0xde>
    1b16:	91 95       	neg	r25
    1b18:	81 95       	neg	r24
    1b1a:	91 09       	sbc	r25, r1
    1b1c:	87 34       	cpi	r24, 0x47	; 71
    1b1e:	91 05       	cpc	r25, r1
    1b20:	d0 f4       	brcc	.+52     	; 0x1b56 <_ZL11showHorizonv+0x118>
    1b22:	8a 31       	cpi	r24, 0x1A	; 26
    1b24:	91 05       	cpc	r25, r1
    1b26:	e0 f4       	brcc	.+56     	; 0x1b60 <_ZL11showHorizonv+0x122>
    1b28:	0a 97       	sbiw	r24, 0x0a	; 10
    1b2a:	00 f1       	brcs	.+64     	; 0x1b6c <_ZL11showHorizonv+0x12e>
    1b2c:	48 e0       	ldi	r20, 0x08	; 8
    1b2e:	4a 87       	std	Y+10, r20	; 0x0a
    1b30:	15 ef       	ldi	r17, 0xF5	; 245
    1b32:	82 ee       	ldi	r24, 0xE2	; 226
    1b34:	8b 87       	std	Y+11, r24	; 0x0b
    1b36:	1f c0       	rjmp	.+62     	; 0x1b76 <_ZL11showHorizonv+0x138>
    1b38:	1a 86       	std	Y+10, r1	; 0x0a
    1b3a:	1d ec       	ldi	r17, 0xCD	; 205
    1b3c:	91 ec       	ldi	r25, 0xC1	; 193
    1b3e:	14 c0       	rjmp	.+40     	; 0x1b68 <_ZL11showHorizonv+0x12a>
    1b40:	e7 e0       	ldi	r30, 0x07	; 7
    1b42:	ea 87       	std	Y+10, r30	; 0x0a
    1b44:	18 ef       	ldi	r17, 0xF8	; 248
    1b46:	f9 ed       	ldi	r31, 0xD9	; 217
    1b48:	15 c0       	rjmp	.+42     	; 0x1b74 <_ZL11showHorizonv+0x136>
    1b4a:	29 e0       	ldi	r18, 0x09	; 9
    1b4c:	2a 87       	std	Y+10, r18	; 0x0a
    1b4e:	1d ec       	ldi	r17, 0xCD	; 205
    1b50:	36 ec       	ldi	r19, 0xC6	; 198
    1b52:	3b 87       	std	Y+11, r19	; 0x0b
    1b54:	10 c0       	rjmp	.+32     	; 0x1b76 <_ZL11showHorizonv+0x138>
    1b56:	1a 86       	std	Y+10, r1	; 0x0a
    1b58:	1d ec       	ldi	r17, 0xCD	; 205
    1b5a:	41 ec       	ldi	r20, 0xC1	; 193
    1b5c:	4b 87       	std	Y+11, r20	; 0x0b
    1b5e:	0b c0       	rjmp	.+22     	; 0x1b76 <_ZL11showHorizonv+0x138>
    1b60:	87 e0       	ldi	r24, 0x07	; 7
    1b62:	8a 87       	std	Y+10, r24	; 0x0a
    1b64:	1b ef       	ldi	r17, 0xFB	; 251
    1b66:	9b ee       	ldi	r25, 0xEB	; 235
    1b68:	9b 87       	std	Y+11, r25	; 0x0b
    1b6a:	05 c0       	rjmp	.+10     	; 0x1b76 <_ZL11showHorizonv+0x138>
    1b6c:	e9 e0       	ldi	r30, 0x09	; 9
    1b6e:	ea 87       	std	Y+10, r30	; 0x0a
    1b70:	1d ec       	ldi	r17, 0xCD	; 205
    1b72:	f6 ec       	ldi	r31, 0xC6	; 198
    1b74:	fb 87       	std	Y+11, r31	; 0x0b
    1b76:	27 ea       	ldi	r18, 0xA7	; 167
    1b78:	32 e9       	ldi	r19, 0x92	; 146
    1b7a:	4b e2       	ldi	r20, 0x2B	; 43
    1b7c:	5c eb       	ldi	r21, 0xBC	; 188
    1b7e:	c5 01       	movw	r24, r10
    1b80:	b4 01       	movw	r22, r8
    1b82:	0e 94 6d 42 	call	0x84da	; 0x84da <__mulsf3>
    1b86:	4b 01       	movw	r8, r22
    1b88:	5c 01       	movw	r10, r24
    1b8a:	25 e3       	ldi	r18, 0x35	; 53
    1b8c:	3a ef       	ldi	r19, 0xFA	; 250
    1b8e:	4e e8       	ldi	r20, 0x8E	; 142
    1b90:	5c e3       	ldi	r21, 0x3C	; 60
    1b92:	c7 01       	movw	r24, r14
    1b94:	b6 01       	movw	r22, r12
    1b96:	0e 94 6d 42 	call	0x84da	; 0x84da <__mulsf3>
    1b9a:	6c 83       	std	Y+4, r22	; 0x04
    1b9c:	7d 83       	std	Y+5, r23	; 0x05
    1b9e:	8e 83       	std	Y+6, r24	; 0x06
    1ba0:	9f 83       	std	Y+7, r25	; 0x07
    1ba2:	9c e0       	ldi	r25, 0x0C	; 12
    1ba4:	29 2e       	mov	r2, r25
    1ba6:	31 2c       	mov	r3, r1
    1ba8:	19 82       	std	Y+1, r1	; 0x01
    1baa:	2a 85       	ldd	r18, Y+10	; 0x0a
    1bac:	02 2e       	mov	r0, r18
    1bae:	00 0c       	add	r0, r0
    1bb0:	33 0b       	sbc	r19, r19
    1bb2:	39 87       	std	Y+9, r19	; 0x09
    1bb4:	28 87       	std	Y+8, r18	; 0x08
    1bb6:	89 81       	ldd	r24, Y+1	; 0x01
    1bb8:	c8 2e       	mov	r12, r24
    1bba:	88 0f       	add	r24, r24
    1bbc:	dd 08       	sbc	r13, r13
    1bbe:	60 91 33 04 	lds	r22, 0x0433	; 0x800433 <osd_att>
    1bc2:	70 91 34 04 	lds	r23, 0x0434	; 0x800434 <osd_att+0x1>
    1bc6:	6c 0d       	add	r22, r12
    1bc8:	7d 1d       	adc	r23, r13
    1bca:	07 2e       	mov	r0, r23
    1bcc:	00 0c       	add	r0, r0
    1bce:	88 0b       	sbc	r24, r24
    1bd0:	99 0b       	sbc	r25, r25
    1bd2:	0e 94 4a 41 	call	0x8294	; 0x8294 <__floatsisf>
    1bd6:	a5 01       	movw	r20, r10
    1bd8:	94 01       	movw	r18, r8
    1bda:	0e 94 6d 42 	call	0x84da	; 0x84da <__mulsf3>
    1bde:	0e 94 24 43 	call	0x8648	; 0x8648 <tan>
    1be2:	20 e0       	ldi	r18, 0x00	; 0
    1be4:	30 e0       	ldi	r19, 0x00	; 0
    1be6:	44 eb       	ldi	r20, 0xB4	; 180
    1be8:	52 e4       	ldi	r21, 0x42	; 66
    1bea:	0e 94 6d 42 	call	0x84da	; 0x84da <__mulsf3>
    1bee:	2b 01       	movw	r4, r22
    1bf0:	3c 01       	movw	r6, r24
    1bf2:	20 e0       	ldi	r18, 0x00	; 0
    1bf4:	30 e0       	ldi	r19, 0x00	; 0
    1bf6:	a9 01       	movw	r20, r18
    1bf8:	0e 94 60 42 	call	0x84c0	; 0x84c0 <__gesf2>
    1bfc:	20 e0       	ldi	r18, 0x00	; 0
    1bfe:	30 e0       	ldi	r19, 0x00	; 0
    1c00:	40 e0       	ldi	r20, 0x00	; 0
    1c02:	5f e3       	ldi	r21, 0x3F	; 63
    1c04:	87 fd       	sbrc	r24, 7
    1c06:	0b c0       	rjmp	.+22     	; 0x1c1e <_ZL11showHorizonv+0x1e0>
    1c08:	c3 01       	movw	r24, r6
    1c0a:	b2 01       	movw	r22, r4
    1c0c:	0e 94 b8 3f 	call	0x7f70	; 0x7f70 <__addsf3>
    1c10:	0e 94 12 41 	call	0x8224	; 0x8224 <__fixsfsi>
    1c14:	7b 01       	movw	r14, r22
    1c16:	ed e2       	ldi	r30, 0x2D	; 45
    1c18:	ee 0e       	add	r14, r30
    1c1a:	f1 1c       	adc	r15, r1
    1c1c:	0a c0       	rjmp	.+20     	; 0x1c32 <_ZL11showHorizonv+0x1f4>
    1c1e:	c3 01       	movw	r24, r6
    1c20:	b2 01       	movw	r22, r4
    1c22:	0e 94 b7 3f 	call	0x7f6e	; 0x7f6e <__subsf3>
    1c26:	0e 94 12 41 	call	0x8224	; 0x8224 <__fixsfsi>
    1c2a:	7b 01       	movw	r14, r22
    1c2c:	fd e2       	ldi	r31, 0x2D	; 45
    1c2e:	ef 0e       	add	r14, r31
    1c30:	f1 1c       	adc	r15, r1
    1c32:	0d e0       	ldi	r16, 0x0D	; 13
    1c34:	02 19       	sub	r16, r2
    1c36:	22 27       	eor	r18, r18
    1c38:	33 27       	eor	r19, r19
    1c3a:	2c 19       	sub	r18, r12
    1c3c:	3d 09       	sbc	r19, r13
    1c3e:	3b 83       	std	Y+3, r19	; 0x03
    1c40:	2a 83       	std	Y+2, r18	; 0x02
    1c42:	80 2f       	mov	r24, r16
    1c44:	90 e0       	ldi	r25, 0x00	; 0
    1c46:	28 16       	cp	r2, r24
    1c48:	39 06       	cpc	r3, r25
    1c4a:	0c f4       	brge	.+2      	; 0x1c4e <_ZL11showHorizonv+0x210>
    1c4c:	72 c0       	rjmp	.+228    	; 0x1d32 <_ZL11showHorizonv+0x2f4>
    1c4e:	6c 81       	ldd	r22, Y+4	; 0x04
    1c50:	7d 81       	ldd	r23, Y+5	; 0x05
    1c52:	8e 81       	ldd	r24, Y+6	; 0x06
    1c54:	9f 81       	ldd	r25, Y+7	; 0x07
    1c56:	0e 94 24 43 	call	0x8648	; 0x8648 <tan>
    1c5a:	2b 01       	movw	r4, r22
    1c5c:	3c 01       	movw	r6, r24
    1c5e:	3c e0       	ldi	r19, 0x0C	; 12
    1c60:	03 9f       	mul	r16, r19
    1c62:	60 2d       	mov	r22, r0
    1c64:	11 24       	eor	r1, r1
    1c66:	6e 54       	subi	r22, 0x4E	; 78
    1c68:	06 2e       	mov	r0, r22
    1c6a:	00 0c       	add	r0, r0
    1c6c:	77 0b       	sbc	r23, r23
    1c6e:	88 0b       	sbc	r24, r24
    1c70:	99 0b       	sbc	r25, r25
    1c72:	0e 94 4a 41 	call	0x8294	; 0x8294 <__floatsisf>
    1c76:	9b 01       	movw	r18, r22
    1c78:	ac 01       	movw	r20, r24
    1c7a:	c3 01       	movw	r24, r6
    1c7c:	b2 01       	movw	r22, r4
    1c7e:	0e 94 6d 42 	call	0x84da	; 0x84da <__mulsf3>
    1c82:	0e 94 12 41 	call	0x8224	; 0x8224 <__fixsfsi>
    1c86:	f7 01       	movw	r30, r14
    1c88:	e6 0f       	add	r30, r22
    1c8a:	f7 1f       	adc	r31, r23
    1c8c:	cf 01       	movw	r24, r30
    1c8e:	01 97       	sbiw	r24, 0x01	; 1
    1c90:	8a 35       	cpi	r24, 0x5A	; 90
    1c92:	91 05       	cpc	r25, r1
    1c94:	08 f0       	brcs	.+2      	; 0x1c98 <_ZL11showHorizonv+0x25a>
    1c96:	4b c0       	rjmp	.+150    	; 0x1d2e <_ZL11showHorizonv+0x2f0>
    1c98:	62 e1       	ldi	r22, 0x12	; 18
    1c9a:	70 e0       	ldi	r23, 0x00	; 0
    1c9c:	0e 94 a0 43 	call	0x8740	; 0x8740 <__divmodhi4>
    1ca0:	3b 01       	movw	r6, r22
    1ca2:	4a 85       	ldd	r20, Y+10	; 0x0a
    1ca4:	44 23       	and	r20, r20
    1ca6:	79 f0       	breq	.+30     	; 0x1cc6 <_ZL11showHorizonv+0x288>
    1ca8:	31 96       	adiw	r30, 0x01	; 1
    1caa:	2e ee       	ldi	r18, 0xEE	; 238
    1cac:	26 03       	mulsu	r18, r22
    1cae:	c0 01       	movw	r24, r0
    1cb0:	27 9f       	mul	r18, r23
    1cb2:	90 0d       	add	r25, r0
    1cb4:	11 24       	eor	r1, r1
    1cb6:	e8 0f       	add	r30, r24
    1cb8:	f9 1f       	adc	r31, r25
    1cba:	f7 fd       	sbrc	r31, 7
    1cbc:	31 96       	adiw	r30, 0x01	; 1
    1cbe:	f5 95       	asr	r31
    1cc0:	e7 95       	ror	r30
    1cc2:	5e 2e       	mov	r5, r30
    1cc4:	01 c0       	rjmp	.+2      	; 0x1cc8 <_ZL11showHorizonv+0x28a>
    1cc6:	51 2c       	mov	r5, r1
    1cc8:	64 e0       	ldi	r22, 0x04	; 4
    1cca:	66 19       	sub	r22, r6
    1ccc:	8f ef       	ldi	r24, 0xFF	; 255
    1cce:	80 0f       	add	r24, r16
    1cd0:	0e 94 98 08 	call	0x1130	; 0x1130 <_ZN3OSD8relPanelEhh>
    1cd4:	39 81       	ldd	r19, Y+1	; 0x01
    1cd6:	33 23       	and	r19, r19
    1cd8:	79 f0       	breq	.+30     	; 0x1cf8 <_ZL11showHorizonv+0x2ba>
    1cda:	05 30       	cpi	r16, 0x05	; 5
    1cdc:	69 f4       	brne	.+26     	; 0x1cf8 <_ZL11showHorizonv+0x2ba>
    1cde:	b6 01       	movw	r22, r12
    1ce0:	d7 fe       	sbrs	r13, 7
    1ce2:	02 c0       	rjmp	.+4      	; 0x1ce8 <_ZL11showHorizonv+0x2aa>
    1ce4:	6a 81       	ldd	r22, Y+2	; 0x02
    1ce6:	7b 81       	ldd	r23, Y+3	; 0x03
    1ce8:	4a e0       	ldi	r20, 0x0A	; 10
    1cea:	50 e0       	ldi	r21, 0x00	; 0
    1cec:	88 e6       	ldi	r24, 0x68	; 104
    1cee:	93 e0       	ldi	r25, 0x03	; 3
    1cf0:	0e 94 63 38 	call	0x70c6	; 0x70c6 <_ZN5Print5printEii>
    1cf4:	06 e0       	ldi	r16, 0x06	; 6
    1cf6:	04 c0       	rjmp	.+8      	; 0x1d00 <_ZL11showHorizonv+0x2c2>
    1cf8:	8b 85       	ldd	r24, Y+11	; 0x0b
    1cfa:	85 0d       	add	r24, r5
    1cfc:	0e 94 bd 08 	call	0x117a	; 0x117a <_ZN3OSD7write_SEh>
    1d00:	55 20       	and	r5, r5
    1d02:	a9 f0       	breq	.+42     	; 0x1d2e <_ZL11showHorizonv+0x2f0>
    1d04:	25 2d       	mov	r18, r5
    1d06:	30 e0       	ldi	r19, 0x00	; 0
    1d08:	88 85       	ldd	r24, Y+8	; 0x08
    1d0a:	99 85       	ldd	r25, Y+9	; 0x09
    1d0c:	28 17       	cp	r18, r24
    1d0e:	39 07       	cpc	r19, r25
    1d10:	74 f0       	brlt	.+28     	; 0x1d2e <_ZL11showHorizonv+0x2f0>
    1d12:	94 e0       	ldi	r25, 0x04	; 4
    1d14:	69 16       	cp	r6, r25
    1d16:	71 04       	cpc	r7, r1
    1d18:	51 f0       	breq	.+20     	; 0x1d2e <_ZL11showHorizonv+0x2f0>
    1d1a:	e5 2d       	mov	r30, r5
    1d1c:	e1 0f       	add	r30, r17
    1d1e:	4a ef       	ldi	r20, 0xFA	; 250
    1d20:	4e 0f       	add	r20, r30
    1d22:	63 e0       	ldi	r22, 0x03	; 3
    1d24:	66 19       	sub	r22, r6
    1d26:	8f ef       	ldi	r24, 0xFF	; 255
    1d28:	80 0f       	add	r24, r16
    1d2a:	0e 94 d0 08 	call	0x11a0	; 0x11a0 <_ZN3OSD8write_xyEhhh>
    1d2e:	0f 5f       	subi	r16, 0xFF	; 255
    1d30:	88 cf       	rjmp	.-240    	; 0x1c42 <_ZL11showHorizonv+0x204>
    1d32:	f7 fe       	sbrs	r15, 7
    1d34:	0b c0       	rjmp	.+22     	; 0x1d4c <_ZL11showHorizonv+0x30e>
    1d36:	e9 81       	ldd	r30, Y+1	; 0x01
    1d38:	e2 5e       	subi	r30, 0xE2	; 226
    1d3a:	e9 83       	std	Y+1, r30	; 0x01
    1d3c:	34 e0       	ldi	r19, 0x04	; 4
    1d3e:	23 1a       	sub	r2, r19
    1d40:	31 08       	sbc	r3, r1
    1d42:	44 e0       	ldi	r20, 0x04	; 4
    1d44:	24 16       	cp	r2, r20
    1d46:	31 04       	cpc	r3, r1
    1d48:	49 f0       	breq	.+18     	; 0x1d5c <_ZL11showHorizonv+0x31e>
    1d4a:	35 cf       	rjmp	.-406    	; 0x1bb6 <_ZL11showHorizonv+0x178>
    1d4c:	fb e5       	ldi	r31, 0x5B	; 91
    1d4e:	ef 16       	cp	r14, r31
    1d50:	f1 04       	cpc	r15, r1
    1d52:	24 f0       	brlt	.+8      	; 0x1d5c <_ZL11showHorizonv+0x31e>
    1d54:	29 81       	ldd	r18, Y+1	; 0x01
    1d56:	2e 51       	subi	r18, 0x1E	; 30
    1d58:	29 83       	std	Y+1, r18	; 0x01
    1d5a:	f0 cf       	rjmp	.-32     	; 0x1d3c <_ZL11showHorizonv+0x2fe>
    1d5c:	2b 96       	adiw	r28, 0x0b	; 11
    1d5e:	e2 e1       	ldi	r30, 0x12	; 18
    1d60:	0c 94 85 44 	jmp	0x890a	; 0x890a <__epilogue_restores__>

00001d64 <_Z11setup_horizv>:
    1d64:	66 e0       	ldi	r22, 0x06	; 6
    1d66:	89 e0       	ldi	r24, 0x09	; 9
    1d68:	0e 94 85 08 	call	0x110a	; 0x110a <_ZN3OSD8setPanelEhh>
    1d6c:	0e 94 1f 0d 	call	0x1a3e	; 0x1a3e <_ZL11showHorizonv>
    1d70:	08 95       	ret

00001d72 <_ZL10panMessage5Point>:
    1d72:	0f 93       	push	r16
    1d74:	1f 93       	push	r17
    1d76:	cf 93       	push	r28
    1d78:	df 93       	push	r29
    1d7a:	20 91 f6 03 	lds	r18, 0x03F6	; 0x8003f6 <mav_message>
    1d7e:	22 23       	and	r18, r18
    1d80:	09 f4       	brne	.+2      	; 0x1d84 <_ZL10panMessage5Point+0x12>
    1d82:	63 c0       	rjmp	.+198    	; 0x1e4a <_ZL10panMessage5Point+0xd8>
    1d84:	40 91 f4 03 	lds	r20, 0x03F4	; 0x8003f4 <mav_msg_ttl>
    1d88:	50 91 f5 03 	lds	r21, 0x03F5	; 0x8003f5 <mav_msg_ttl+0x1>
    1d8c:	20 91 63 06 	lds	r18, 0x0663	; 0x800663 <_ZL7seconds>
    1d90:	30 91 64 06 	lds	r19, 0x0664	; 0x800664 <_ZL7seconds+0x1>
    1d94:	42 17       	cp	r20, r18
    1d96:	53 07       	cpc	r21, r19
    1d98:	09 f4       	brne	.+2      	; 0x1d9c <_ZL10panMessage5Point+0x2a>
    1d9a:	57 c0       	rjmp	.+174    	; 0x1e4a <_ZL10panMessage5Point+0xd8>
    1d9c:	20 91 f2 03 	lds	r18, 0x03F2	; 0x8003f2 <mav_msg_severity>
    1da0:	23 30       	cpi	r18, 0x03	; 3
    1da2:	10 f4       	brcc	.+4      	; 0x1da8 <_ZL10panMessage5Point+0x36>
    1da4:	d1 e2       	ldi	r29, 0x21	; 33
    1da6:	01 c0       	rjmp	.+2      	; 0x1daa <_ZL10panMessage5Point+0x38>
    1da8:	d0 e0       	ldi	r29, 0x00	; 0
    1daa:	09 2f       	mov	r16, r25
    1dac:	18 2f       	mov	r17, r24
    1dae:	80 91 f3 03 	lds	r24, 0x03F3	; 0x8003f3 <mav_msg_len>
    1db2:	ca e1       	ldi	r28, 0x1A	; 26
    1db4:	c8 1b       	sub	r28, r24
    1db6:	c7 fd       	sbrc	r28, 7
    1db8:	11 c0       	rjmp	.+34     	; 0x1ddc <_ZL10panMessage5Point+0x6a>
    1dba:	8c 2f       	mov	r24, r28
    1dbc:	86 95       	lsr	r24
    1dbe:	69 2f       	mov	r22, r25
    1dc0:	81 0f       	add	r24, r17
    1dc2:	0e 94 85 08 	call	0x110a	; 0x110a <_ZN3OSD8setPanelEhh>
    1dc6:	17 fd       	sbrc	r17, 7
    1dc8:	02 c0       	rjmp	.+4      	; 0x1dce <_ZL10panMessage5Point+0x5c>
    1dca:	d1 11       	cpse	r29, r1
    1dcc:	41 c0       	rjmp	.+130    	; 0x1e50 <_ZL10panMessage5Point+0xde>
    1dce:	66 ef       	ldi	r22, 0xF6	; 246
    1dd0:	73 e0       	ldi	r23, 0x03	; 3
    1dd2:	88 e6       	ldi	r24, 0x68	; 104
    1dd4:	93 e0       	ldi	r25, 0x03	; 3
    1dd6:	0e 94 ab 37 	call	0x6f56	; 0x6f56 <_ZN5Print5printEPKc>
    1dda:	42 c0       	rjmp	.+132    	; 0x1e60 <_ZL10panMessage5Point+0xee>
    1ddc:	17 fd       	sbrc	r17, 7
    1dde:	02 c0       	rjmp	.+4      	; 0x1de4 <_ZL10panMessage5Point+0x72>
    1de0:	d1 11       	cpse	r29, r1
    1de2:	3a c0       	rjmp	.+116    	; 0x1e58 <_ZL10panMessage5Point+0xe6>
    1de4:	06 fd       	sbrc	r16, 6
    1de6:	1d c0       	rjmp	.+58     	; 0x1e22 <_ZL10panMessage5Point+0xb0>
    1de8:	c1 95       	neg	r28
    1dea:	2c 2f       	mov	r18, r28
    1dec:	30 e0       	ldi	r19, 0x00	; 0
    1dee:	80 91 31 04 	lds	r24, 0x0431	; 0x800431 <count02s>
    1df2:	90 91 f1 03 	lds	r25, 0x03F1	; 0x8003f1 <mav_msg_shift>
    1df6:	89 1b       	sub	r24, r25
    1df8:	90 e0       	ldi	r25, 0x00	; 0
    1dfa:	b9 01       	movw	r22, r18
    1dfc:	66 0f       	add	r22, r22
    1dfe:	77 1f       	adc	r23, r23
    1e00:	0e 94 a0 43 	call	0x8740	; 0x8740 <__divmodhi4>
    1e04:	40 91 d2 03 	lds	r20, 0x03D2	; 0x8003d2 <skip_inc>
    1e08:	41 11       	cpse	r20, r1
    1e0a:	0d c0       	rjmp	.+26     	; 0x1e26 <_ZL10panMessage5Point+0xb4>
    1e0c:	00 97       	sbiw	r24, 0x00	; 0
    1e0e:	29 f0       	breq	.+10     	; 0x1e1a <_ZL10panMessage5Point+0xa8>
    1e10:	21 50       	subi	r18, 0x01	; 1
    1e12:	31 09       	sbc	r19, r1
    1e14:	82 17       	cp	r24, r18
    1e16:	93 07       	cpc	r25, r19
    1e18:	31 f4       	brne	.+12     	; 0x1e26 <_ZL10panMessage5Point+0xb4>
    1e1a:	21 e0       	ldi	r18, 0x01	; 1
    1e1c:	20 93 d2 03 	sts	0x03D2, r18	; 0x8003d2 <skip_inc>
    1e20:	02 c0       	rjmp	.+4      	; 0x1e26 <_ZL10panMessage5Point+0xb4>
    1e22:	80 e0       	ldi	r24, 0x00	; 0
    1e24:	90 e0       	ldi	r25, 0x00	; 0
    1e26:	ec 01       	movw	r28, r24
    1e28:	ca 50       	subi	r28, 0x0A	; 10
    1e2a:	dc 4f       	sbci	r29, 0xFC	; 252
    1e2c:	8e 01       	movw	r16, r28
    1e2e:	06 5e       	subi	r16, 0xE6	; 230
    1e30:	1f 4f       	sbci	r17, 0xFF	; 255
    1e32:	89 91       	ld	r24, Y+
    1e34:	81 11       	cpse	r24, r1
    1e36:	03 c0       	rjmp	.+6      	; 0x1e3e <_ZL10panMessage5Point+0xcc>
    1e38:	0e 94 33 0a 	call	0x1466	; 0x1466 <_ZL9osd_blankv>
    1e3c:	11 c0       	rjmp	.+34     	; 0x1e60 <_ZL10panMessage5Point+0xee>
    1e3e:	0e 94 bd 08 	call	0x117a	; 0x117a <_ZN3OSD7write_SEh>
    1e42:	c0 17       	cp	r28, r16
    1e44:	d1 07       	cpc	r29, r17
    1e46:	a9 f7       	brne	.-22     	; 0x1e32 <_ZL10panMessage5Point+0xc0>
    1e48:	f7 cf       	rjmp	.-18     	; 0x1e38 <_ZL10panMessage5Point+0xc6>
    1e4a:	10 92 f6 03 	sts	0x03F6, r1	; 0x8003f6 <mav_message>
    1e4e:	08 c0       	rjmp	.+16     	; 0x1e60 <_ZL10panMessage5Point+0xee>
    1e50:	8d 2f       	mov	r24, r29
    1e52:	0e 94 bd 08 	call	0x117a	; 0x117a <_ZN3OSD7write_SEh>
    1e56:	bb cf       	rjmp	.-138    	; 0x1dce <_ZL10panMessage5Point+0x5c>
    1e58:	8d 2f       	mov	r24, r29
    1e5a:	0e 94 bd 08 	call	0x117a	; 0x117a <_ZN3OSD7write_SEh>
    1e5e:	c2 cf       	rjmp	.-124    	; 0x1de4 <_ZL10panMessage5Point+0x72>
    1e60:	df 91       	pop	r29
    1e62:	cf 91       	pop	r28
    1e64:	1f 91       	pop	r17
    1e66:	0f 91       	pop	r16
    1e68:	08 95       	ret

00001e6a <_ZL11panCALLSIGN5Point>:
    1e6a:	29 2f       	mov	r18, r25
    1e6c:	80 91 63 06 	lds	r24, 0x0663	; 0x800663 <_ZL7seconds>
    1e70:	90 91 64 06 	lds	r25, 0x0664	; 0x800664 <_ZL7seconds+0x1>
    1e74:	8f 73       	andi	r24, 0x3F	; 63
    1e76:	99 27       	eor	r25, r25
    1e78:	02 97       	sbiw	r24, 0x02	; 2
    1e7a:	10 f0       	brcs	.+4      	; 0x1e80 <_ZL11panCALLSIGN5Point+0x16>
    1e7c:	26 ff       	sbrs	r18, 6
    1e7e:	06 c0       	rjmp	.+12     	; 0x1e8c <_ZL11panCALLSIGN5Point+0x22>
    1e80:	6a e6       	ldi	r22, 0x6A	; 106
    1e82:	74 e0       	ldi	r23, 0x04	; 4
    1e84:	88 e6       	ldi	r24, 0x68	; 104
    1e86:	93 e0       	ldi	r25, 0x03	; 3
    1e88:	0e 94 ab 37 	call	0x6f56	; 0x6f56 <_ZN5Print5printEPKc>
    1e8c:	08 95       	ret

00001e8e <_ZL14serial_print_SPKc>:
    1e8e:	bc 01       	movw	r22, r24
    1e90:	83 e5       	ldi	r24, 0x53	; 83
    1e92:	93 e0       	ldi	r25, 0x03	; 3
    1e94:	0e 94 c5 3a 	call	0x758a	; 0x758a <_ZN12BetterStream9println_PEPKc>
    1e98:	08 95       	ret

00001e9a <_ZL9print_rffv>:
    1e9a:	87 e3       	ldi	r24, 0x37	; 55
    1e9c:	91 e0       	ldi	r25, 0x01	; 1
    1e9e:	0e 94 47 0f 	call	0x1e8e	; 0x1e8e <_ZL14serial_print_SPKc>
    1ea2:	08 95       	ret

00001ea4 <_ZL10diff_coordRfS_.isra.6>:
    1ea4:	0e 94 b7 3f 	call	0x7f6e	; 0x7f6e <__subsf3>
    1ea8:	20 ec       	ldi	r18, 0xC0	; 192
    1eaa:	3b e6       	ldi	r19, 0x6B	; 107
    1eac:	49 ed       	ldi	r20, 0xD9	; 217
    1eae:	57 e4       	ldi	r21, 0x47	; 71
    1eb0:	0e 94 6d 42 	call	0x84da	; 0x84da <__mulsf3>
    1eb4:	08 95       	ret

00001eb6 <_ZL10coord_fracRfh.isra.7>:
    1eb6:	cf 92       	push	r12
    1eb8:	df 92       	push	r13
    1eba:	ef 92       	push	r14
    1ebc:	ff 92       	push	r15
    1ebe:	cf 93       	push	r28
    1ec0:	c4 2f       	mov	r28, r20
    1ec2:	6b 01       	movw	r12, r22
    1ec4:	7c 01       	movw	r14, r24
    1ec6:	e8 94       	clt
    1ec8:	f7 f8       	bld	r15, 7
    1eca:	c7 01       	movw	r24, r14
    1ecc:	b6 01       	movw	r22, r12
    1ece:	0e 94 12 41 	call	0x8224	; 0x8224 <__fixsfsi>
    1ed2:	07 2e       	mov	r0, r23
    1ed4:	00 0c       	add	r0, r0
    1ed6:	88 0b       	sbc	r24, r24
    1ed8:	99 0b       	sbc	r25, r25
    1eda:	0e 94 4a 41 	call	0x8294	; 0x8294 <__floatsisf>
    1ede:	9b 01       	movw	r18, r22
    1ee0:	ac 01       	movw	r20, r24
    1ee2:	c7 01       	movw	r24, r14
    1ee4:	b6 01       	movw	r22, r12
    1ee6:	0e 94 b7 3f 	call	0x7f6e	; 0x7f6e <__subsf3>
    1eea:	9b 01       	movw	r18, r22
    1eec:	ac 01       	movw	r20, r24
    1eee:	c1 11       	cpse	r28, r1
    1ef0:	05 c0       	rjmp	.+10     	; 0x1efc <_ZL10coord_fracRfh.isra.7+0x46>
    1ef2:	60 e0       	ldi	r22, 0x00	; 0
    1ef4:	74 e2       	ldi	r23, 0x24	; 36
    1ef6:	84 e7       	ldi	r24, 0x74	; 116
    1ef8:	99 e4       	ldi	r25, 0x49	; 73
    1efa:	04 c0       	rjmp	.+8      	; 0x1f04 <_ZL10coord_fracRfh.isra.7+0x4e>
    1efc:	60 e0       	ldi	r22, 0x00	; 0
    1efe:	70 e5       	ldi	r23, 0x50	; 80
    1f00:	83 ec       	ldi	r24, 0xC3	; 195
    1f02:	97 e4       	ldi	r25, 0x47	; 71
    1f04:	0e 94 6d 42 	call	0x84da	; 0x84da <__mulsf3>
    1f08:	0e 94 19 41 	call	0x8232	; 0x8232 <__fixunssfsi>
    1f0c:	cf 91       	pop	r28
    1f0e:	ff 90       	pop	r15
    1f10:	ef 90       	pop	r14
    1f12:	df 90       	pop	r13
    1f14:	cf 90       	pop	r12
    1f16:	08 95       	ret

00001f18 <_ZL12printTimeCnvPmh.isra.9>:
    1f18:	cf 93       	push	r28
    1f1a:	c4 2f       	mov	r28, r20
    1f1c:	28 ee       	ldi	r18, 0xE8	; 232
    1f1e:	33 e0       	ldi	r19, 0x03	; 3
    1f20:	40 e0       	ldi	r20, 0x00	; 0
    1f22:	50 e0       	ldi	r21, 0x00	; 0
    1f24:	0e 94 b4 43 	call	0x8768	; 0x8768 <__udivmodsi4>
    1f28:	da 01       	movw	r26, r20
    1f2a:	c9 01       	movw	r24, r18
    1f2c:	40 e0       	ldi	r20, 0x00	; 0
    1f2e:	6c 2f       	mov	r22, r28
    1f30:	0e 94 2e 0c 	call	0x185c	; 0x185c <_ZL9printTimejhh>
    1f34:	cf 91       	pop	r28
    1f36:	08 95       	ret

00001f38 <_ZL7panTime5Point>:
    1f38:	96 fb       	bst	r25, 6
    1f3a:	44 27       	eor	r20, r20
    1f3c:	40 f9       	bld	r20, 0
    1f3e:	60 91 9e 06 	lds	r22, 0x069E	; 0x80069e <_ZL23total_flight_time_milis>
    1f42:	70 91 9f 06 	lds	r23, 0x069F	; 0x80069f <_ZL23total_flight_time_milis+0x1>
    1f46:	80 91 a0 06 	lds	r24, 0x06A0	; 0x8006a0 <_ZL23total_flight_time_milis+0x2>
    1f4a:	90 91 a1 06 	lds	r25, 0x06A1	; 0x8006a1 <_ZL23total_flight_time_milis+0x3>
    1f4e:	0e 94 8c 0f 	call	0x1f18	; 0x1f18 <_ZL12printTimeCnvPmh.isra.9>
    1f52:	08 95       	ret

00001f54 <_ZL12print_energy5Point.isra.12>:
    1f54:	cf 93       	push	r28
    1f56:	c8 2f       	mov	r28, r24
    1f58:	60 91 07 05 	lds	r22, 0x0507	; 0x800507 <_ZL3eff>
    1f5c:	70 91 08 05 	lds	r23, 0x0508	; 0x800508 <_ZL3eff+0x1>
    1f60:	80 91 09 05 	lds	r24, 0x0509	; 0x800509 <_ZL3eff+0x2>
    1f64:	90 91 0a 05 	lds	r25, 0x050A	; 0x80050a <_ZL3eff+0x3>
    1f68:	0e 94 12 41 	call	0x8224	; 0x8224 <__fixsfsi>
    1f6c:	61 50       	subi	r22, 0x01	; 1
    1f6e:	71 09       	sbc	r23, r1
    1f70:	6f 30       	cpi	r22, 0x0F	; 15
    1f72:	77 42       	sbci	r23, 0x27	; 39
    1f74:	90 f4       	brcc	.+36     	; 0x1f9a <_ZL12print_energy5Point.isra.12+0x46>
    1f76:	c7 fd       	sbrc	r28, 7
    1f78:	03 c0       	rjmp	.+6      	; 0x1f80 <_ZL12print_energy5Point.isra.12+0x2c>
    1f7a:	86 e1       	ldi	r24, 0x16	; 22
    1f7c:	0e 94 bd 08 	call	0x117a	; 0x117a <_ZN3OSD7write_SEh>
    1f80:	40 91 07 05 	lds	r20, 0x0507	; 0x800507 <_ZL3eff>
    1f84:	50 91 08 05 	lds	r21, 0x0508	; 0x800508 <_ZL3eff+0x1>
    1f88:	60 91 09 05 	lds	r22, 0x0509	; 0x800509 <_ZL3eff+0x2>
    1f8c:	70 91 0a 05 	lds	r23, 0x050A	; 0x80050a <_ZL3eff+0x3>
    1f90:	21 e0       	ldi	r18, 0x01	; 1
    1f92:	80 e2       	ldi	r24, 0x20	; 32
    1f94:	9a e0       	ldi	r25, 0x0A	; 10
    1f96:	0e 94 8e 0c 	call	0x191c	; 0x191c <_ZL12osd_printf_2PKcfh>
    1f9a:	cf 91       	pop	r28
    1f9c:	08 95       	ret

00001f9e <_ZL11print_coord5PointPf.isra.14>:
    1f9e:	cf 93       	push	r28
    1fa0:	df 93       	push	r29
    1fa2:	28 2f       	mov	r18, r24
    1fa4:	86 fb       	bst	r24, 6
    1fa6:	44 27       	eor	r20, r20
    1fa8:	40 f9       	bld	r20, 0
    1faa:	e4 2f       	mov	r30, r20
    1fac:	f0 e0       	ldi	r31, 0x00	; 0
    1fae:	db 01       	movw	r26, r22
    1fb0:	6d 91       	ld	r22, X+
    1fb2:	7d 91       	ld	r23, X+
    1fb4:	8d 91       	ld	r24, X+
    1fb6:	9c 91       	ld	r25, X
    1fb8:	ee 0f       	add	r30, r30
    1fba:	ff 1f       	adc	r31, r31
    1fbc:	25 ff       	sbrs	r18, 5
    1fbe:	1b c0       	rjmp	.+54     	; 0x1ff6 <_ZL11print_coord5PointPf.isra.14+0x58>
    1fc0:	e4 58       	subi	r30, 0x84	; 132
    1fc2:	f6 4f       	sbci	r31, 0xF6	; 246
    1fc4:	c5 91       	lpm	r28, Z+
    1fc6:	d4 91       	lpm	r29, Z
    1fc8:	0e 94 5b 0f 	call	0x1eb6	; 0x1eb6 <_ZL10coord_fracRfh.isra.7>
    1fcc:	9f 93       	push	r25
    1fce:	8f 93       	push	r24
    1fd0:	7f 93       	push	r23
    1fd2:	6f 93       	push	r22
    1fd4:	df 93       	push	r29
    1fd6:	cf 93       	push	r28
    1fd8:	88 e6       	ldi	r24, 0x68	; 104
    1fda:	93 e0       	ldi	r25, 0x03	; 3
    1fdc:	9f 93       	push	r25
    1fde:	8f 93       	push	r24
    1fe0:	0e 94 e3 3a 	call	0x75c6	; 0x75c6 <_ZN12BetterStream9_printf_PEPKcz>
    1fe4:	ad b7       	in	r26, 0x3d	; 61
    1fe6:	be b7       	in	r27, 0x3e	; 62
    1fe8:	18 96       	adiw	r26, 0x08	; 8
    1fea:	0f b6       	in	r0, 0x3f	; 63
    1fec:	f8 94       	cli
    1fee:	be bf       	out	0x3e, r27	; 62
    1ff0:	0f be       	out	0x3f, r0	; 63
    1ff2:	ad bf       	out	0x3d, r26	; 61
    1ff4:	09 c0       	rjmp	.+18     	; 0x2008 <_ZL11print_coord5PointPf.isra.14+0x6a>
    1ff6:	e8 58       	subi	r30, 0x88	; 136
    1ff8:	f6 4f       	sbci	r31, 0xF6	; 246
    1ffa:	25 91       	lpm	r18, Z+
    1ffc:	34 91       	lpm	r19, Z
    1ffe:	ab 01       	movw	r20, r22
    2000:	bc 01       	movw	r22, r24
    2002:	c9 01       	movw	r24, r18
    2004:	0e 94 f9 0c 	call	0x19f2	; 0x19f2 <_ZL12osd_printf_1PKcf>
    2008:	df 91       	pop	r29
    200a:	cf 91       	pop	r28
    200c:	08 95       	ret

0000200e <_ZL10panGPS_lon5Point>:
    200e:	69 e4       	ldi	r22, 0x49	; 73
    2010:	74 e0       	ldi	r23, 0x04	; 4
    2012:	89 2f       	mov	r24, r25
    2014:	0e 94 cf 0f 	call	0x1f9e	; 0x1f9e <_ZL11print_coord5PointPf.isra.14>
    2018:	08 95       	ret

0000201a <_ZL10panGPS_lat5Point>:
    201a:	65 e4       	ldi	r22, 0x45	; 69
    201c:	74 e0       	ldi	r23, 0x04	; 4
    201e:	89 2f       	mov	r24, r25
    2020:	0e 94 cf 0f 	call	0x1f9e	; 0x1f9e <_ZL11print_coord5PointPf.isra.14>
    2024:	08 95       	ret

00002026 <_ZL12osd_printi_2PKcjj.constprop.32>:
    2026:	7f 93       	push	r23
    2028:	6f 93       	push	r22
    202a:	9f 93       	push	r25
    202c:	8f 93       	push	r24
    202e:	80 e1       	ldi	r24, 0x10	; 16
    2030:	94 e0       	ldi	r25, 0x04	; 4
    2032:	9f 93       	push	r25
    2034:	8f 93       	push	r24
    2036:	88 e6       	ldi	r24, 0x68	; 104
    2038:	93 e0       	ldi	r25, 0x03	; 3
    203a:	9f 93       	push	r25
    203c:	8f 93       	push	r24
    203e:	0e 94 e3 3a 	call	0x75c6	; 0x75c6 <_ZN12BetterStream9_printf_PEPKcz>
    2042:	8d b7       	in	r24, 0x3d	; 61
    2044:	9e b7       	in	r25, 0x3e	; 62
    2046:	08 96       	adiw	r24, 0x08	; 8
    2048:	0f b6       	in	r0, 0x3f	; 63
    204a:	f8 94       	cli
    204c:	9e bf       	out	0x3e, r25	; 62
    204e:	0f be       	out	0x3f, r0	; 63
    2050:	8d bf       	out	0x3d, r24	; 61
    2052:	08 95       	ret

00002054 <_ZL5panCh5Point>:
    2054:	0f 93       	push	r16
    2056:	1f 93       	push	r17
    2058:	cf 93       	push	r28
    205a:	df 93       	push	r29
    205c:	0f eb       	ldi	r16, 0xBF	; 191
    205e:	16 e0       	ldi	r17, 0x06	; 6
    2060:	80 e0       	ldi	r24, 0x00	; 0
    2062:	90 e0       	ldi	r25, 0x00	; 0
    2064:	f8 01       	movw	r30, r16
    2066:	61 91       	ld	r22, Z+
    2068:	71 91       	ld	r23, Z+
    206a:	8f 01       	movw	r16, r30
    206c:	ec 01       	movw	r28, r24
    206e:	21 96       	adiw	r28, 0x01	; 1
    2070:	ce 01       	movw	r24, r28
    2072:	0e 94 13 10 	call	0x2026	; 0x2026 <_ZL12osd_printi_2PKcjj.constprop.32>
    2076:	ce 01       	movw	r24, r28
    2078:	28 97       	sbiw	r28, 0x08	; 8
    207a:	a1 f7       	brne	.-24     	; 0x2064 <_ZL5panCh5Point+0x10>
    207c:	df 91       	pop	r29
    207e:	cf 91       	pop	r28
    2080:	1f 91       	pop	r17
    2082:	0f 91       	pop	r16
    2084:	08 95       	ret

00002086 <__vector_20>:
    2086:	1f 92       	push	r1
    2088:	0f 92       	push	r0
    208a:	0f b6       	in	r0, 0x3f	; 63
    208c:	0f 92       	push	r0
    208e:	11 24       	eor	r1, r1
    2090:	2f 93       	push	r18
    2092:	3f 93       	push	r19
    2094:	4f 93       	push	r20
    2096:	8f 93       	push	r24
    2098:	9f 93       	push	r25
    209a:	ef 93       	push	r30
    209c:	ff 93       	push	r31
    209e:	40 91 c6 00 	lds	r20, 0x00C6	; 0x8000c6 <__data_load_end+0x7f7702>
    20a2:	80 91 1b 07 	lds	r24, 0x071B	; 0x80071b <__FastSerial__rxBuffer>
    20a6:	90 91 1c 07 	lds	r25, 0x071C	; 0x80071c <__FastSerial__rxBuffer+0x1>
    20aa:	01 96       	adiw	r24, 0x01	; 1
    20ac:	20 91 1f 07 	lds	r18, 0x071F	; 0x80071f <__FastSerial__rxBuffer+0x4>
    20b0:	30 91 20 07 	lds	r19, 0x0720	; 0x800720 <__FastSerial__rxBuffer+0x5>
    20b4:	82 23       	and	r24, r18
    20b6:	93 23       	and	r25, r19
    20b8:	20 91 1d 07 	lds	r18, 0x071D	; 0x80071d <__FastSerial__rxBuffer+0x2>
    20bc:	30 91 1e 07 	lds	r19, 0x071E	; 0x80071e <__FastSerial__rxBuffer+0x3>
    20c0:	82 17       	cp	r24, r18
    20c2:	93 07       	cpc	r25, r19
    20c4:	79 f0       	breq	.+30     	; 0x20e4 <__vector_20+0x5e>
    20c6:	20 91 1b 07 	lds	r18, 0x071B	; 0x80071b <__FastSerial__rxBuffer>
    20ca:	30 91 1c 07 	lds	r19, 0x071C	; 0x80071c <__FastSerial__rxBuffer+0x1>
    20ce:	e0 91 21 07 	lds	r30, 0x0721	; 0x800721 <__FastSerial__rxBuffer+0x6>
    20d2:	f0 91 22 07 	lds	r31, 0x0722	; 0x800722 <__FastSerial__rxBuffer+0x7>
    20d6:	e2 0f       	add	r30, r18
    20d8:	f3 1f       	adc	r31, r19
    20da:	40 83       	st	Z, r20
    20dc:	90 93 1c 07 	sts	0x071C, r25	; 0x80071c <__FastSerial__rxBuffer+0x1>
    20e0:	80 93 1b 07 	sts	0x071B, r24	; 0x80071b <__FastSerial__rxBuffer>
    20e4:	ff 91       	pop	r31
    20e6:	ef 91       	pop	r30
    20e8:	9f 91       	pop	r25
    20ea:	8f 91       	pop	r24
    20ec:	4f 91       	pop	r20
    20ee:	3f 91       	pop	r19
    20f0:	2f 91       	pop	r18
    20f2:	0f 90       	pop	r0
    20f4:	0f be       	out	0x3f, r0	; 63
    20f6:	0f 90       	pop	r0
    20f8:	1f 90       	pop	r1
    20fa:	18 95       	reti

000020fc <__vector_21>:
    20fc:	1f 92       	push	r1
    20fe:	0f 92       	push	r0
    2100:	0f b6       	in	r0, 0x3f	; 63
    2102:	0f 92       	push	r0
    2104:	11 24       	eor	r1, r1
    2106:	2f 93       	push	r18
    2108:	3f 93       	push	r19
    210a:	8f 93       	push	r24
    210c:	9f 93       	push	r25
    210e:	ef 93       	push	r30
    2110:	ff 93       	push	r31
    2112:	20 91 0d 07 	lds	r18, 0x070D	; 0x80070d <__FastSerial__txBuffer+0x2>
    2116:	30 91 0e 07 	lds	r19, 0x070E	; 0x80070e <__FastSerial__txBuffer+0x3>
    211a:	80 91 0b 07 	lds	r24, 0x070B	; 0x80070b <__FastSerial__txBuffer>
    211e:	90 91 0c 07 	lds	r25, 0x070C	; 0x80070c <__FastSerial__txBuffer+0x1>
    2122:	28 17       	cp	r18, r24
    2124:	39 07       	cpc	r19, r25
    2126:	e9 f0       	breq	.+58     	; 0x2162 <__vector_21+0x66>
    2128:	80 91 0d 07 	lds	r24, 0x070D	; 0x80070d <__FastSerial__txBuffer+0x2>
    212c:	90 91 0e 07 	lds	r25, 0x070E	; 0x80070e <__FastSerial__txBuffer+0x3>
    2130:	e0 91 11 07 	lds	r30, 0x0711	; 0x800711 <__FastSerial__txBuffer+0x6>
    2134:	f0 91 12 07 	lds	r31, 0x0712	; 0x800712 <__FastSerial__txBuffer+0x7>
    2138:	e8 0f       	add	r30, r24
    213a:	f9 1f       	adc	r31, r25
    213c:	80 81       	ld	r24, Z
    213e:	80 93 c6 00 	sts	0x00C6, r24	; 0x8000c6 <__data_load_end+0x7f7702>
    2142:	80 91 0d 07 	lds	r24, 0x070D	; 0x80070d <__FastSerial__txBuffer+0x2>
    2146:	90 91 0e 07 	lds	r25, 0x070E	; 0x80070e <__FastSerial__txBuffer+0x3>
    214a:	01 96       	adiw	r24, 0x01	; 1
    214c:	20 91 0f 07 	lds	r18, 0x070F	; 0x80070f <__FastSerial__txBuffer+0x4>
    2150:	30 91 10 07 	lds	r19, 0x0710	; 0x800710 <__FastSerial__txBuffer+0x5>
    2154:	82 23       	and	r24, r18
    2156:	93 23       	and	r25, r19
    2158:	90 93 0e 07 	sts	0x070E, r25	; 0x80070e <__FastSerial__txBuffer+0x3>
    215c:	80 93 0d 07 	sts	0x070D, r24	; 0x80070d <__FastSerial__txBuffer+0x2>
    2160:	10 c0       	rjmp	.+32     	; 0x2182 <__vector_21+0x86>
    2162:	20 91 0b 07 	lds	r18, 0x070B	; 0x80070b <__FastSerial__txBuffer>
    2166:	30 91 0c 07 	lds	r19, 0x070C	; 0x80070c <__FastSerial__txBuffer+0x1>
    216a:	80 91 0d 07 	lds	r24, 0x070D	; 0x80070d <__FastSerial__txBuffer+0x2>
    216e:	90 91 0e 07 	lds	r25, 0x070E	; 0x80070e <__FastSerial__txBuffer+0x3>
    2172:	28 17       	cp	r18, r24
    2174:	39 07       	cpc	r19, r25
    2176:	29 f4       	brne	.+10     	; 0x2182 <__vector_21+0x86>
    2178:	80 91 c1 00 	lds	r24, 0x00C1	; 0x8000c1 <__data_load_end+0x7f76fd>
    217c:	8f 7d       	andi	r24, 0xDF	; 223
    217e:	80 93 c1 00 	sts	0x00C1, r24	; 0x8000c1 <__data_load_end+0x7f76fd>
    2182:	ff 91       	pop	r31
    2184:	ef 91       	pop	r30
    2186:	9f 91       	pop	r25
    2188:	8f 91       	pop	r24
    218a:	3f 91       	pop	r19
    218c:	2f 91       	pop	r18
    218e:	0f 90       	pop	r0
    2190:	0f be       	out	0x3f, r0	; 63
    2192:	0f 90       	pop	r0
    2194:	1f 90       	pop	r1
    2196:	18 95       	reti

00002198 <__vector_28>:
    2198:	1f 92       	push	r1
    219a:	0f 92       	push	r0
    219c:	0f b6       	in	r0, 0x3f	; 63
    219e:	0f 92       	push	r0
    21a0:	11 24       	eor	r1, r1
    21a2:	2f 93       	push	r18
    21a4:	3f 93       	push	r19
    21a6:	4f 93       	push	r20
    21a8:	8f 93       	push	r24
    21aa:	9f 93       	push	r25
    21ac:	ef 93       	push	r30
    21ae:	ff 93       	push	r31
    21b0:	40 91 ce 00 	lds	r20, 0x00CE	; 0x8000ce <__data_load_end+0x7f770a>
    21b4:	80 91 23 07 	lds	r24, 0x0723	; 0x800723 <__FastSerial__rxBuffer+0x8>
    21b8:	90 91 24 07 	lds	r25, 0x0724	; 0x800724 <__FastSerial__rxBuffer+0x9>
    21bc:	01 96       	adiw	r24, 0x01	; 1
    21be:	20 91 27 07 	lds	r18, 0x0727	; 0x800727 <__FastSerial__rxBuffer+0xc>
    21c2:	30 91 28 07 	lds	r19, 0x0728	; 0x800728 <__FastSerial__rxBuffer+0xd>
    21c6:	82 23       	and	r24, r18
    21c8:	93 23       	and	r25, r19
    21ca:	20 91 25 07 	lds	r18, 0x0725	; 0x800725 <__FastSerial__rxBuffer+0xa>
    21ce:	30 91 26 07 	lds	r19, 0x0726	; 0x800726 <__FastSerial__rxBuffer+0xb>
    21d2:	82 17       	cp	r24, r18
    21d4:	93 07       	cpc	r25, r19
    21d6:	79 f0       	breq	.+30     	; 0x21f6 <__vector_28+0x5e>
    21d8:	20 91 23 07 	lds	r18, 0x0723	; 0x800723 <__FastSerial__rxBuffer+0x8>
    21dc:	30 91 24 07 	lds	r19, 0x0724	; 0x800724 <__FastSerial__rxBuffer+0x9>
    21e0:	e0 91 29 07 	lds	r30, 0x0729	; 0x800729 <__FastSerial__rxBuffer+0xe>
    21e4:	f0 91 2a 07 	lds	r31, 0x072A	; 0x80072a <__FastSerial__rxBuffer+0xf>
    21e8:	e2 0f       	add	r30, r18
    21ea:	f3 1f       	adc	r31, r19
    21ec:	40 83       	st	Z, r20
    21ee:	90 93 24 07 	sts	0x0724, r25	; 0x800724 <__FastSerial__rxBuffer+0x9>
    21f2:	80 93 23 07 	sts	0x0723, r24	; 0x800723 <__FastSerial__rxBuffer+0x8>
    21f6:	ff 91       	pop	r31
    21f8:	ef 91       	pop	r30
    21fa:	9f 91       	pop	r25
    21fc:	8f 91       	pop	r24
    21fe:	4f 91       	pop	r20
    2200:	3f 91       	pop	r19
    2202:	2f 91       	pop	r18
    2204:	0f 90       	pop	r0
    2206:	0f be       	out	0x3f, r0	; 63
    2208:	0f 90       	pop	r0
    220a:	1f 90       	pop	r1
    220c:	18 95       	reti

0000220e <__vector_29>:
    220e:	1f 92       	push	r1
    2210:	0f 92       	push	r0
    2212:	0f b6       	in	r0, 0x3f	; 63
    2214:	0f 92       	push	r0
    2216:	11 24       	eor	r1, r1
    2218:	2f 93       	push	r18
    221a:	3f 93       	push	r19
    221c:	8f 93       	push	r24
    221e:	9f 93       	push	r25
    2220:	ef 93       	push	r30
    2222:	ff 93       	push	r31
    2224:	20 91 15 07 	lds	r18, 0x0715	; 0x800715 <__FastSerial__txBuffer+0xa>
    2228:	30 91 16 07 	lds	r19, 0x0716	; 0x800716 <__FastSerial__txBuffer+0xb>
    222c:	80 91 13 07 	lds	r24, 0x0713	; 0x800713 <__FastSerial__txBuffer+0x8>
    2230:	90 91 14 07 	lds	r25, 0x0714	; 0x800714 <__FastSerial__txBuffer+0x9>
    2234:	28 17       	cp	r18, r24
    2236:	39 07       	cpc	r19, r25
    2238:	e9 f0       	breq	.+58     	; 0x2274 <__vector_29+0x66>
    223a:	80 91 15 07 	lds	r24, 0x0715	; 0x800715 <__FastSerial__txBuffer+0xa>
    223e:	90 91 16 07 	lds	r25, 0x0716	; 0x800716 <__FastSerial__txBuffer+0xb>
    2242:	e0 91 19 07 	lds	r30, 0x0719	; 0x800719 <__FastSerial__txBuffer+0xe>
    2246:	f0 91 1a 07 	lds	r31, 0x071A	; 0x80071a <__FastSerial__txBuffer+0xf>
    224a:	e8 0f       	add	r30, r24
    224c:	f9 1f       	adc	r31, r25
    224e:	80 81       	ld	r24, Z
    2250:	80 93 ce 00 	sts	0x00CE, r24	; 0x8000ce <__data_load_end+0x7f770a>
    2254:	80 91 15 07 	lds	r24, 0x0715	; 0x800715 <__FastSerial__txBuffer+0xa>
    2258:	90 91 16 07 	lds	r25, 0x0716	; 0x800716 <__FastSerial__txBuffer+0xb>
    225c:	01 96       	adiw	r24, 0x01	; 1
    225e:	20 91 17 07 	lds	r18, 0x0717	; 0x800717 <__FastSerial__txBuffer+0xc>
    2262:	30 91 18 07 	lds	r19, 0x0718	; 0x800718 <__FastSerial__txBuffer+0xd>
    2266:	82 23       	and	r24, r18
    2268:	93 23       	and	r25, r19
    226a:	90 93 16 07 	sts	0x0716, r25	; 0x800716 <__FastSerial__txBuffer+0xb>
    226e:	80 93 15 07 	sts	0x0715, r24	; 0x800715 <__FastSerial__txBuffer+0xa>
    2272:	10 c0       	rjmp	.+32     	; 0x2294 <__vector_29+0x86>
    2274:	20 91 13 07 	lds	r18, 0x0713	; 0x800713 <__FastSerial__txBuffer+0x8>
    2278:	30 91 14 07 	lds	r19, 0x0714	; 0x800714 <__FastSerial__txBuffer+0x9>
    227c:	80 91 15 07 	lds	r24, 0x0715	; 0x800715 <__FastSerial__txBuffer+0xa>
    2280:	90 91 16 07 	lds	r25, 0x0716	; 0x800716 <__FastSerial__txBuffer+0xb>
    2284:	28 17       	cp	r18, r24
    2286:	39 07       	cpc	r19, r25
    2288:	29 f4       	brne	.+10     	; 0x2294 <__vector_29+0x86>
    228a:	80 91 c9 00 	lds	r24, 0x00C9	; 0x8000c9 <__data_load_end+0x7f7705>
    228e:	8f 7d       	andi	r24, 0xDF	; 223
    2290:	80 93 c9 00 	sts	0x00C9, r24	; 0x8000c9 <__data_load_end+0x7f7705>
    2294:	ff 91       	pop	r31
    2296:	ef 91       	pop	r30
    2298:	9f 91       	pop	r25
    229a:	8f 91       	pop	r24
    229c:	3f 91       	pop	r19
    229e:	2f 91       	pop	r18
    22a0:	0f 90       	pop	r0
    22a2:	0f be       	out	0x3f, r0	; 63
    22a4:	0f 90       	pop	r0
    22a6:	1f 90       	pop	r1
    22a8:	18 95       	reti

000022aa <_Z15eeprom_read_lenPhjj>:
    22aa:	ef 92       	push	r14
    22ac:	ff 92       	push	r15
    22ae:	0f 93       	push	r16
    22b0:	1f 93       	push	r17
    22b2:	cf 93       	push	r28
    22b4:	df 93       	push	r29
    22b6:	8c 01       	movw	r16, r24
    22b8:	04 0f       	add	r16, r20
    22ba:	15 1f       	adc	r17, r21
    22bc:	ec 01       	movw	r28, r24
    22be:	7b 01       	movw	r14, r22
    22c0:	e8 1a       	sub	r14, r24
    22c2:	f9 0a       	sbc	r15, r25
    22c4:	c0 17       	cp	r28, r16
    22c6:	d1 07       	cpc	r29, r17
    22c8:	39 f0       	breq	.+14     	; 0x22d8 <_Z15eeprom_read_lenPhjj+0x2e>
    22ca:	c7 01       	movw	r24, r14
    22cc:	8c 0f       	add	r24, r28
    22ce:	9d 1f       	adc	r25, r29
    22d0:	0e 94 a0 44 	call	0x8940	; 0x8940 <eeprom_read_byte>
    22d4:	89 93       	st	Y+, r24
    22d6:	f6 cf       	rjmp	.-20     	; 0x22c4 <_Z15eeprom_read_lenPhjj+0x1a>
    22d8:	cd b7       	in	r28, 0x3d	; 61
    22da:	de b7       	in	r29, 0x3e	; 62
    22dc:	e6 e0       	ldi	r30, 0x06	; 6
    22de:	0c 94 91 44 	jmp	0x8922	; 0x8922 <__epilogue_restores__+0x18>

000022e2 <_ZL11printSensorh>:
    22e2:	a8 e1       	ldi	r26, 0x18	; 24
    22e4:	b0 e0       	ldi	r27, 0x00	; 0
    22e6:	e7 e7       	ldi	r30, 0x77	; 119
    22e8:	f1 e1       	ldi	r31, 0x11	; 17
    22ea:	0c 94 78 44 	jmp	0x88f0	; 0x88f0 <__prologue_saves__+0x1e>
    22ee:	18 2f       	mov	r17, r24
    22f0:	88 e1       	ldi	r24, 0x18	; 24
    22f2:	18 9f       	mul	r17, r24
    22f4:	b0 01       	movw	r22, r0
    22f6:	11 24       	eor	r1, r1
    22f8:	60 58       	subi	r22, 0x80	; 128
    22fa:	7d 4f       	sbci	r23, 0xFD	; 253
    22fc:	48 e1       	ldi	r20, 0x18	; 24
    22fe:	50 e0       	ldi	r21, 0x00	; 0
    2300:	ce 01       	movw	r24, r28
    2302:	01 96       	adiw	r24, 0x01	; 1
    2304:	0e 94 55 11 	call	0x22aa	; 0x22aa <_Z15eeprom_read_lenPhjj>
    2308:	e1 2f       	mov	r30, r17
    230a:	f0 e0       	ldi	r31, 0x00	; 0
    230c:	ee 0f       	add	r30, r30
    230e:	ff 1f       	adc	r31, r31
    2310:	ef 55       	subi	r30, 0x5F	; 95
    2312:	fc 4f       	sbci	r31, 0xFC	; 252
    2314:	60 81       	ld	r22, Z
    2316:	71 81       	ldd	r23, Z+1	; 0x01
    2318:	80 e0       	ldi	r24, 0x00	; 0
    231a:	90 e0       	ldi	r25, 0x00	; 0
    231c:	0e 94 48 41 	call	0x8290	; 0x8290 <__floatunsisf>
    2320:	29 81       	ldd	r18, Y+1	; 0x01
    2322:	3a 81       	ldd	r19, Y+2	; 0x02
    2324:	4b 81       	ldd	r20, Y+3	; 0x03
    2326:	5c 81       	ldd	r21, Y+4	; 0x04
    2328:	0e 94 6d 42 	call	0x84da	; 0x84da <__mulsf3>
    232c:	2d 81       	ldd	r18, Y+5	; 0x05
    232e:	3e 81       	ldd	r19, Y+6	; 0x06
    2330:	4f 81       	ldd	r20, Y+7	; 0x07
    2332:	58 85       	ldd	r21, Y+8	; 0x08
    2334:	0e 94 b8 3f 	call	0x7f70	; 0x7f70 <__addsf3>
    2338:	9f 93       	push	r25
    233a:	8f 93       	push	r24
    233c:	7f 93       	push	r23
    233e:	6f 93       	push	r22
    2340:	ce 01       	movw	r24, r28
    2342:	09 96       	adiw	r24, 0x09	; 9
    2344:	9f 93       	push	r25
    2346:	8f 93       	push	r24
    2348:	88 e6       	ldi	r24, 0x68	; 104
    234a:	93 e0       	ldi	r25, 0x03	; 3
    234c:	9f 93       	push	r25
    234e:	8f 93       	push	r24
    2350:	0e 94 d0 3a 	call	0x75a0	; 0x75a0 <_ZN12BetterStream6printfEPKcz>
    2354:	0f b6       	in	r0, 0x3f	; 63
    2356:	f8 94       	cli
    2358:	de bf       	out	0x3e, r29	; 62
    235a:	0f be       	out	0x3f, r0	; 63
    235c:	cd bf       	out	0x3d, r28	; 61
    235e:	68 96       	adiw	r28, 0x18	; 24
    2360:	e3 e0       	ldi	r30, 0x03	; 3
    2362:	0c 94 94 44 	jmp	0x8928	; 0x8928 <__epilogue_restores__+0x1e>

00002366 <_ZL9panSensor5Pointh.isra.18>:
    2366:	98 2f       	mov	r25, r24
    2368:	26 2f       	mov	r18, r22
    236a:	30 e0       	ldi	r19, 0x00	; 0
    236c:	f9 01       	movw	r30, r18
    236e:	e3 56       	subi	r30, 0x63	; 99
    2370:	fc 4f       	sbci	r31, 0xFC	; 252
    2372:	87 fd       	sbrc	r24, 7
    2374:	0d c0       	rjmp	.+26     	; 0x2390 <_ZL9panSensor5Pointh.isra.18+0x2a>
    2376:	86 2f       	mov	r24, r22
    2378:	41 e0       	ldi	r20, 0x01	; 1
    237a:	40 83       	st	Z, r20
    237c:	f9 01       	movw	r30, r18
    237e:	e7 56       	subi	r30, 0x67	; 103
    2380:	fc 4f       	sbci	r31, 0xFC	; 252
    2382:	96 fb       	bst	r25, 6
    2384:	99 27       	eor	r25, r25
    2386:	90 f9       	bld	r25, 0
    2388:	90 83       	st	Z, r25
    238a:	0e 94 71 11 	call	0x22e2	; 0x22e2 <_ZL11printSensorh>
    238e:	08 95       	ret
    2390:	10 82       	st	Z, r1
    2392:	08 95       	ret

00002394 <_ZL10panSensor45Point>:
    2394:	63 e0       	ldi	r22, 0x03	; 3
    2396:	89 2f       	mov	r24, r25
    2398:	0e 94 b3 11 	call	0x2366	; 0x2366 <_ZL9panSensor5Pointh.isra.18>
    239c:	08 95       	ret

0000239e <_ZL10panSensor35Point>:
    239e:	62 e0       	ldi	r22, 0x02	; 2
    23a0:	89 2f       	mov	r24, r25
    23a2:	0e 94 b3 11 	call	0x2366	; 0x2366 <_ZL9panSensor5Pointh.isra.18>
    23a6:	08 95       	ret

000023a8 <_ZL10panSensor25Point>:
    23a8:	61 e0       	ldi	r22, 0x01	; 1
    23aa:	89 2f       	mov	r24, r25
    23ac:	0e 94 b3 11 	call	0x2366	; 0x2366 <_ZL9panSensor5Pointh.isra.18>
    23b0:	08 95       	ret

000023b2 <_ZL10panSensor15Point>:
    23b2:	60 e0       	ldi	r22, 0x00	; 0
    23b4:	89 2f       	mov	r24, r25
    23b6:	0e 94 b3 11 	call	0x2366	; 0x2366 <_ZL9panSensor5Pointh.isra.18>
    23ba:	08 95       	ret

000023bc <_Z10setup_sensv>:
    23bc:	cf 93       	push	r28
    23be:	6a e0       	ldi	r22, 0x0A	; 10
    23c0:	86 e0       	ldi	r24, 0x06	; 6
    23c2:	0e 94 85 08 	call	0x110a	; 0x110a <_ZN3OSD8setPanelEhh>
    23c6:	c0 e0       	ldi	r28, 0x00	; 0
    23c8:	8c 2f       	mov	r24, r28
    23ca:	0e 94 71 11 	call	0x22e2	; 0x22e2 <_ZL11printSensorh>
    23ce:	0e 94 37 0a 	call	0x146e	; 0x146e <_ZL6osd_nlv>
    23d2:	cf 5f       	subi	r28, 0xFF	; 255
    23d4:	c4 30       	cpi	r28, 0x04	; 4
    23d6:	c1 f7       	brne	.-16     	; 0x23c8 <_Z10setup_sensv+0xc>
    23d8:	cf 91       	pop	r28
    23da:	08 95       	ret

000023dc <_Z16eeprom_write_lenPhjj>:
    23dc:	a0 e0       	ldi	r26, 0x00	; 0
    23de:	b0 e0       	ldi	r27, 0x00	; 0
    23e0:	e4 ef       	ldi	r30, 0xF4	; 244
    23e2:	f1 e1       	ldi	r31, 0x11	; 17
    23e4:	0c 94 74 44 	jmp	0x88e8	; 0x88e8 <__prologue_saves__+0x16>
    23e8:	eb 01       	movw	r28, r22
    23ea:	7c 01       	movw	r14, r24
    23ec:	8b 01       	movw	r16, r22
    23ee:	04 0f       	add	r16, r20
    23f0:	15 1f       	adc	r17, r21
    23f2:	c0 17       	cp	r28, r16
    23f4:	d1 07       	cpc	r29, r17
    23f6:	71 f0       	breq	.+28     	; 0x2414 <_Z16eeprom_write_lenPhjj+0x38>
    23f8:	f7 01       	movw	r30, r14
    23fa:	d1 90       	ld	r13, Z+
    23fc:	7f 01       	movw	r14, r30
    23fe:	ce 01       	movw	r24, r28
    2400:	0e 94 a0 44 	call	0x8940	; 0x8940 <eeprom_read_byte>
    2404:	8d 15       	cp	r24, r13
    2406:	21 f0       	breq	.+8      	; 0x2410 <_Z16eeprom_write_lenPhjj+0x34>
    2408:	6d 2d       	mov	r22, r13
    240a:	ce 01       	movw	r24, r28
    240c:	0e 94 a8 44 	call	0x8950	; 0x8950 <eeprom_write_byte>
    2410:	21 96       	adiw	r28, 0x01	; 1
    2412:	ef cf       	rjmp	.-34     	; 0x23f2 <_Z16eeprom_write_lenPhjj+0x16>
    2414:	cd b7       	in	r28, 0x3d	; 61
    2416:	de b7       	in	r29, 0x3e	; 62
    2418:	e7 e0       	ldi	r30, 0x07	; 7
    241a:	0c 94 90 44 	jmp	0x8920	; 0x8920 <__epilogue_restores__+0x16>

0000241e <_Z19print_eeprom_stringhPFvhE>:
    241e:	ef 92       	push	r14
    2420:	ff 92       	push	r15
    2422:	1f 93       	push	r17
    2424:	cf 93       	push	r28
    2426:	df 93       	push	r29
    2428:	18 2f       	mov	r17, r24
    242a:	7b 01       	movw	r14, r22
    242c:	c0 e0       	ldi	r28, 0x00	; 0
    242e:	d3 e0       	ldi	r29, 0x03	; 3
    2430:	ce 01       	movw	r24, r28
    2432:	0e 94 a0 44 	call	0x8940	; 0x8940 <eeprom_read_byte>
    2436:	8f 3f       	cpi	r24, 0xFF	; 255
    2438:	71 f0       	breq	.+28     	; 0x2456 <_Z19print_eeprom_stringhPFvhE+0x38>
    243a:	81 11       	cpse	r24, r1
    243c:	03 c0       	rjmp	.+6      	; 0x2444 <_Z19print_eeprom_stringhPFvhE+0x26>
    243e:	11 23       	and	r17, r17
    2440:	51 f0       	breq	.+20     	; 0x2456 <_Z19print_eeprom_stringhPFvhE+0x38>
    2442:	11 50       	subi	r17, 0x01	; 1
    2444:	11 11       	cpse	r17, r1
    2446:	02 c0       	rjmp	.+4      	; 0x244c <_Z19print_eeprom_stringhPFvhE+0x2e>
    2448:	f7 01       	movw	r30, r14
    244a:	09 95       	icall
    244c:	21 96       	adiw	r28, 0x01	; 1
    244e:	c0 38       	cpi	r28, 0x80	; 128
    2450:	f3 e0       	ldi	r31, 0x03	; 3
    2452:	df 07       	cpc	r29, r31
    2454:	69 f7       	brne	.-38     	; 0x2430 <_Z19print_eeprom_stringhPFvhE+0x12>
    2456:	df 91       	pop	r29
    2458:	cf 91       	pop	r28
    245a:	1f 91       	pop	r17
    245c:	ff 90       	pop	r15
    245e:	ef 90       	pop	r14
    2460:	08 95       	ret

00002462 <_Z11osd_print_SPKc>:
    2462:	bc 01       	movw	r22, r24
    2464:	88 e6       	ldi	r24, 0x68	; 104
    2466:	93 e0       	ldi	r25, 0x03	; 3
    2468:	0e 94 ab 3a 	call	0x7556	; 0x7556 <_ZN12BetterStream7print_PEPKc>
    246c:	08 95       	ret

0000246e <_ZL8panVario5Point>:
    246e:	1f 93       	push	r17
    2470:	cf 93       	push	r28
    2472:	df 93       	push	r29
    2474:	18 2f       	mov	r17, r24
    2476:	d9 2f       	mov	r29, r25
    2478:	87 fd       	sbrc	r24, 7
    247a:	10 c0       	rjmp	.+32     	; 0x249c <_ZL8panVario5Point+0x2e>
    247c:	96 ff       	sbrs	r25, 6
    247e:	04 c0       	rjmp	.+8      	; 0x2488 <_ZL8panVario5Point+0x1a>
    2480:	c0 e0       	ldi	r28, 0x00	; 0
    2482:	84 e4       	ldi	r24, 0x44	; 68
    2484:	94 e0       	ldi	r25, 0x04	; 4
    2486:	03 c0       	rjmp	.+6      	; 0x248e <_ZL8panVario5Point+0x20>
    2488:	c1 e0       	ldi	r28, 0x01	; 1
    248a:	83 e5       	ldi	r24, 0x53	; 83
    248c:	94 e0       	ldi	r25, 0x04	; 4
    248e:	0e 94 31 12 	call	0x2462	; 0x2462 <_Z11osd_print_SPKc>
    2492:	81 2f       	mov	r24, r17
    2494:	9d 2f       	mov	r25, r29
    2496:	0e 94 3b 0a 	call	0x1476	; 0x1476 <_ZL12osd_setPanel5Point>
    249a:	01 c0       	rjmp	.+2      	; 0x249e <_ZL8panVario5Point+0x30>
    249c:	c0 e0       	ldi	r28, 0x00	; 0
    249e:	80 91 f6 06 	lds	r24, 0x06F6	; 0x8006f6 <_ZL14vertical_speed>
    24a2:	90 91 f7 06 	lds	r25, 0x06F7	; 0x8006f7 <_ZL14vertical_speed+0x1>
    24a6:	a0 91 f8 06 	lds	r26, 0x06F8	; 0x8006f8 <_ZL14vertical_speed+0x2>
    24aa:	b0 91 f9 06 	lds	r27, 0x06F9	; 0x8006f9 <_ZL14vertical_speed+0x3>
    24ae:	bc 01       	movw	r22, r24
    24b0:	cd 01       	movw	r24, r26
    24b2:	90 58       	subi	r25, 0x80	; 128
    24b4:	9b 01       	movw	r18, r22
    24b6:	ac 01       	movw	r20, r24
    24b8:	0e 94 b8 3f 	call	0x7f70	; 0x7f70 <__addsf3>
    24bc:	0e 94 12 41 	call	0x8224	; 0x8224 <__fixsfsi>
    24c0:	80 91 ac 03 	lds	r24, 0x03AC	; 0x8003ac <screen_flags>
    24c4:	82 ff       	sbrs	r24, 2
    24c6:	05 c0       	rjmp	.+10     	; 0x24d2 <_ZL8panVario5Point+0x64>
    24c8:	cb 01       	movw	r24, r22
    24ca:	6c e3       	ldi	r22, 0x3C	; 60
    24cc:	70 e0       	ldi	r23, 0x00	; 0
    24ce:	0e 94 a0 43 	call	0x8740	; 0x8740 <__divmodhi4>
    24d2:	d5 ff       	sbrs	r29, 5
    24d4:	05 c0       	rjmp	.+10     	; 0x24e0 <_ZL8panVario5Point+0x72>
    24d6:	cb 01       	movw	r24, r22
    24d8:	6a e0       	ldi	r22, 0x0A	; 10
    24da:	70 e0       	ldi	r23, 0x00	; 0
    24dc:	0e 94 a0 43 	call	0x8740	; 0x8740 <__divmodhi4>
    24e0:	d4 ff       	sbrs	r29, 4
    24e2:	06 c0       	rjmp	.+12     	; 0x24f0 <_ZL8panVario5Point+0x82>
    24e4:	77 ff       	sbrs	r23, 7
    24e6:	02 c0       	rjmp	.+4      	; 0x24ec <_ZL8panVario5Point+0x7e>
    24e8:	6f 5f       	subi	r22, 0xFF	; 255
    24ea:	7f 4f       	sbci	r23, 0xFF	; 255
    24ec:	75 95       	asr	r23
    24ee:	67 95       	ror	r22
    24f0:	16 ff       	sbrs	r17, 6
    24f2:	08 c0       	rjmp	.+16     	; 0x2504 <_ZL8panVario5Point+0x96>
    24f4:	77 ff       	sbrs	r23, 7
    24f6:	02 c0       	rjmp	.+4      	; 0x24fc <_ZL8panVario5Point+0x8e>
    24f8:	6d 5f       	subi	r22, 0xFD	; 253
    24fa:	7f 4f       	sbci	r23, 0xFF	; 255
    24fc:	75 95       	asr	r23
    24fe:	67 95       	ror	r22
    2500:	75 95       	asr	r23
    2502:	67 95       	ror	r22
    2504:	9b 01       	movw	r18, r22
    2506:	23 5d       	subi	r18, 0xD3	; 211
    2508:	3f 4f       	sbci	r19, 0xFF	; 255
    250a:	37 ff       	sbrs	r19, 7
    250c:	02 c0       	rjmp	.+4      	; 0x2512 <_ZL8panVario5Point+0xa4>
    250e:	2f 5f       	subi	r18, 0xFF	; 255
    2510:	3f 4f       	sbci	r19, 0xFF	; 255
    2512:	c9 01       	movw	r24, r18
    2514:	95 95       	asr	r25
    2516:	87 95       	ror	r24
    2518:	69 e0       	ldi	r22, 0x09	; 9
    251a:	70 e0       	ldi	r23, 0x00	; 0
    251c:	0e 94 a0 43 	call	0x8740	; 0x8740 <__divmodhi4>
    2520:	65 30       	cpi	r22, 0x05	; 5
    2522:	2c f4       	brge	.+10     	; 0x252e <_ZL8panVario5Point+0xc0>
    2524:	67 fd       	sbrc	r22, 7
    2526:	06 c0       	rjmp	.+12     	; 0x2534 <_ZL8panVario5Point+0xc6>
    2528:	4f ec       	ldi	r20, 0xCF	; 207
    252a:	48 1b       	sub	r20, r24
    252c:	05 c0       	rjmp	.+10     	; 0x2538 <_ZL8panVario5Point+0xca>
    252e:	4e e7       	ldi	r20, 0x7E	; 126
    2530:	64 e0       	ldi	r22, 0x04	; 4
    2532:	02 c0       	rjmp	.+4      	; 0x2538 <_ZL8panVario5Point+0xca>
    2534:	40 e6       	ldi	r20, 0x60	; 96
    2536:	60 e0       	ldi	r22, 0x00	; 0
    2538:	8c 2f       	mov	r24, r28
    253a:	0e 94 d0 08 	call	0x11a0	; 0x11a0 <_ZN3OSD8write_xyEhhh>
    253e:	df 91       	pop	r29
    2540:	cf 91       	pop	r28
    2542:	1f 91       	pop	r17
    2544:	08 95       	ret

00002546 <_ZL7panVibe5Point>:
    2546:	cf 93       	push	r28
    2548:	df 93       	push	r29
    254a:	87 fd       	sbrc	r24, 7
    254c:	04 c0       	rjmp	.+8      	; 0x2556 <_ZL7panVibe5Point+0x10>
    254e:	89 e3       	ldi	r24, 0x39	; 57
    2550:	94 e0       	ldi	r25, 0x04	; 4
    2552:	0e 94 31 12 	call	0x2462	; 0x2462 <_Z11osd_print_SPKc>
    2556:	ca e7       	ldi	r28, 0x7A	; 122
    2558:	d3 e0       	ldi	r29, 0x03	; 3
    255a:	49 91       	ld	r20, Y+
    255c:	59 91       	ld	r21, Y+
    255e:	69 91       	ld	r22, Y+
    2560:	79 91       	ld	r23, Y+
    2562:	84 e4       	ldi	r24, 0x44	; 68
    2564:	9a e0       	ldi	r25, 0x0A	; 10
    2566:	0e 94 f9 0c 	call	0x19f2	; 0x19f2 <_ZL12osd_printf_1PKcf>
    256a:	83 e0       	ldi	r24, 0x03	; 3
    256c:	c6 38       	cpi	r28, 0x86	; 134
    256e:	d8 07       	cpc	r29, r24
    2570:	a1 f7       	brne	.-24     	; 0x255a <_ZL7panVibe5Point+0x14>
    2572:	0e 94 37 0a 	call	0x146e	; 0x146e <_ZL6osd_nlv>
    2576:	c4 e7       	ldi	r28, 0x74	; 116
    2578:	d3 e0       	ldi	r29, 0x03	; 3
    257a:	69 91       	ld	r22, Y+
    257c:	79 91       	ld	r23, Y+
    257e:	8c e3       	ldi	r24, 0x3C	; 60
    2580:	9a e0       	ldi	r25, 0x0A	; 10
    2582:	0e 94 3f 0a 	call	0x147e	; 0x147e <_ZL12osd_printi_1PKci>
    2586:	83 e0       	ldi	r24, 0x03	; 3
    2588:	ca 37       	cpi	r28, 0x7A	; 122
    258a:	d8 07       	cpc	r29, r24
    258c:	b1 f7       	brne	.-20     	; 0x257a <_ZL7panVibe5Point+0x34>
    258e:	df 91       	pop	r29
    2590:	cf 91       	pop	r28
    2592:	08 95       	ret

00002594 <_ZL7panRose5Point>:
    2594:	ff 92       	push	r15
    2596:	0f 93       	push	r16
    2598:	1f 93       	push	r17
    259a:	cf 93       	push	r28
    259c:	df 93       	push	r29
    259e:	d9 2f       	mov	r29, r25
    25a0:	80 95       	com	r24
    25a2:	18 2f       	mov	r17, r24
    25a4:	11 1f       	adc	r17, r17
    25a6:	11 27       	eor	r17, r17
    25a8:	11 1f       	adc	r17, r17
    25aa:	41 f0       	breq	.+16     	; 0x25bc <_ZL7panRose5Point+0x28>
    25ac:	96 fd       	sbrc	r25, 6
    25ae:	06 c0       	rjmp	.+12     	; 0x25bc <_ZL7panRose5Point+0x28>
    25b0:	95 ff       	sbrs	r25, 5
    25b2:	3a c0       	rjmp	.+116    	; 0x2628 <_ZL7panRose5Point+0x94>
    25b4:	81 e7       	ldi	r24, 0x71	; 113
    25b6:	93 e0       	ldi	r25, 0x03	; 3
    25b8:	0e 94 31 12 	call	0x2462	; 0x2462 <_Z11osd_print_SPKc>
    25bc:	83 ec       	ldi	r24, 0xC3	; 195
    25be:	0e 94 bd 08 	call	0x117a	; 0x117a <_ZN3OSD7write_SEh>
    25c2:	20 91 80 06 	lds	r18, 0x0680	; 0x800680 <_ZL11osd_heading>
    25c6:	30 91 81 06 	lds	r19, 0x0681	; 0x800681 <_ZL11osd_heading+0x1>
    25ca:	48 e1       	ldi	r20, 0x18	; 24
    25cc:	42 9f       	mul	r20, r18
    25ce:	c0 01       	movw	r24, r0
    25d0:	43 9f       	mul	r20, r19
    25d2:	90 0d       	add	r25, r0
    25d4:	11 24       	eor	r1, r1
    25d6:	0c 96       	adiw	r24, 0x0c	; 12
    25d8:	68 e6       	ldi	r22, 0x68	; 104
    25da:	71 e0       	ldi	r23, 0x01	; 1
    25dc:	0e 94 a0 43 	call	0x8740	; 0x8740 <__divmodhi4>
    25e0:	64 50       	subi	r22, 0x04	; 4
    25e2:	71 09       	sbc	r23, r1
    25e4:	c6 2f       	mov	r28, r22
    25e6:	77 ff       	sbrs	r23, 7
    25e8:	02 c0       	rjmp	.+4      	; 0x25ee <_ZL7panRose5Point+0x5a>
    25ea:	c8 e1       	ldi	r28, 0x18	; 24
    25ec:	c6 0f       	add	r28, r22
    25ee:	d5 fb       	bst	r29, 5
    25f0:	ff 24       	eor	r15, r15
    25f2:	f0 f8       	bld	r15, 0
    25f4:	d5 fd       	sbrc	r29, 5
    25f6:	02 c0       	rjmp	.+4      	; 0x25fc <_ZL7panRose5Point+0x68>
    25f8:	09 e0       	ldi	r16, 0x09	; 9
    25fa:	01 c0       	rjmp	.+2      	; 0x25fe <_ZL7panRose5Point+0x6a>
    25fc:	0a e0       	ldi	r16, 0x0A	; 10
    25fe:	ec 2f       	mov	r30, r28
    2600:	f0 e0       	ldi	r31, 0x00	; 0
    2602:	e4 5b       	subi	r30, 0xB4	; 180
    2604:	fc 4f       	sbci	r31, 0xFC	; 252
    2606:	84 91       	lpm	r24, Z
    2608:	0e 94 bd 08 	call	0x117a	; 0x117a <_ZN3OSD7write_SEh>
    260c:	cf 5f       	subi	r28, 0xFF	; 255
    260e:	c8 31       	cpi	r28, 0x18	; 24
    2610:	08 f0       	brcs	.+2      	; 0x2614 <_ZL7panRose5Point+0x80>
    2612:	c0 e0       	ldi	r28, 0x00	; 0
    2614:	01 50       	subi	r16, 0x01	; 1
    2616:	99 f7       	brne	.-26     	; 0x25fe <_ZL7panRose5Point+0x6a>
    2618:	87 e8       	ldi	r24, 0x87	; 135
    261a:	0e 94 bd 08 	call	0x117a	; 0x117a <_ZN3OSD7write_SEh>
    261e:	11 23       	and	r17, r17
    2620:	79 f0       	breq	.+30     	; 0x2640 <_ZL7panRose5Point+0xac>
    2622:	d6 fd       	sbrc	r29, 6
    2624:	04 c0       	rjmp	.+8      	; 0x262e <_ZL7panRose5Point+0x9a>
    2626:	0c c0       	rjmp	.+24     	; 0x2640 <_ZL7panRose5Point+0xac>
    2628:	84 e6       	ldi	r24, 0x64	; 100
    262a:	93 e0       	ldi	r25, 0x03	; 3
    262c:	c5 cf       	rjmp	.-118    	; 0x25b8 <_ZL7panRose5Point+0x24>
    262e:	f1 10       	cpse	r15, r1
    2630:	03 c0       	rjmp	.+6      	; 0x2638 <_ZL7panRose5Point+0xa4>
    2632:	85 e3       	ldi	r24, 0x35	; 53
    2634:	93 e0       	ldi	r25, 0x03	; 3
    2636:	02 c0       	rjmp	.+4      	; 0x263c <_ZL7panRose5Point+0xa8>
    2638:	81 e4       	ldi	r24, 0x41	; 65
    263a:	93 e0       	ldi	r25, 0x03	; 3
    263c:	0e 94 31 12 	call	0x2462	; 0x2462 <_Z11osd_print_SPKc>
    2640:	cd b7       	in	r28, 0x3d	; 61
    2642:	de b7       	in	r29, 0x3e	; 62
    2644:	e5 e0       	ldi	r30, 0x05	; 5
    2646:	0c 94 92 44 	jmp	0x8924	; 0x8924 <__epilogue_restores__+0x1a>

0000264a <_ZL6panGPS5Point>:
    264a:	1f 93       	push	r17
    264c:	cf 93       	push	r28
    264e:	df 93       	push	r29
    2650:	40 91 49 04 	lds	r20, 0x0449	; 0x800449 <osd_pos+0x4>
    2654:	50 91 4a 04 	lds	r21, 0x044A	; 0x80044a <osd_pos+0x5>
    2658:	60 91 4b 04 	lds	r22, 0x044B	; 0x80044b <osd_pos+0x6>
    265c:	70 91 4c 04 	lds	r23, 0x044C	; 0x80044c <osd_pos+0x7>
    2660:	45 2b       	or	r20, r21
    2662:	46 2b       	or	r20, r22
    2664:	47 2b       	or	r20, r23
    2666:	69 f4       	brne	.+26     	; 0x2682 <_ZL6panGPS5Point+0x38>
    2668:	40 91 45 04 	lds	r20, 0x0445	; 0x800445 <osd_pos>
    266c:	50 91 46 04 	lds	r21, 0x0446	; 0x800446 <osd_pos+0x1>
    2670:	60 91 47 04 	lds	r22, 0x0447	; 0x800447 <osd_pos+0x2>
    2674:	70 91 48 04 	lds	r23, 0x0448	; 0x800448 <osd_pos+0x3>
    2678:	45 2b       	or	r20, r21
    267a:	46 2b       	or	r20, r22
    267c:	47 2b       	or	r20, r23
    267e:	09 f4       	brne	.+2      	; 0x2682 <_ZL6panGPS5Point+0x38>
    2680:	42 c0       	rjmp	.+132    	; 0x2706 <_ZL6panGPS5Point+0xbc>
    2682:	94 fd       	sbrc	r25, 4
    2684:	02 c0       	rjmp	.+4      	; 0x268a <_ZL6panGPS5Point+0x40>
    2686:	1f ef       	ldi	r17, 0xFF	; 255
    2688:	01 c0       	rjmp	.+2      	; 0x268c <_ZL6panGPS5Point+0x42>
    268a:	10 e2       	ldi	r17, 0x20	; 32
    268c:	ec 01       	movw	r28, r24
    268e:	80 91 c0 03 	lds	r24, 0x03C0	; 0x8003c0 <lflags+0xc>
    2692:	88 23       	and	r24, r24
    2694:	f1 f0       	breq	.+60     	; 0x26d2 <_ZL6panGPS5Point+0x88>
    2696:	80 91 cc 03 	lds	r24, 0x03CC	; 0x8003cc <lflags+0x18>
    269a:	8a 30       	cpi	r24, 0x0A	; 10
    269c:	50 f0       	brcs	.+20     	; 0x26b2 <_ZL6panGPS5Point+0x68>
    269e:	89 e2       	ldi	r24, 0x29	; 41
    26a0:	93 e0       	ldi	r25, 0x03	; 3
    26a2:	0e 94 31 12 	call	0x2462	; 0x2462 <_Z11osd_print_SPKc>
    26a6:	81 2f       	mov	r24, r17
    26a8:	0e 94 bd 08 	call	0x117a	; 0x117a <_ZN3OSD7write_SEh>
    26ac:	82 e2       	ldi	r24, 0x22	; 34
    26ae:	93 e0       	ldi	r25, 0x03	; 3
    26b0:	0d c0       	rjmp	.+26     	; 0x26cc <_ZL6panGPS5Point+0x82>
    26b2:	80 91 cd 03 	lds	r24, 0x03CD	; 0x8003cd <lflags+0x19>
    26b6:	8a 30       	cpi	r24, 0x0A	; 10
    26b8:	60 f0       	brcs	.+24     	; 0x26d2 <_ZL6panGPS5Point+0x88>
    26ba:	89 e2       	ldi	r24, 0x29	; 41
    26bc:	93 e0       	ldi	r25, 0x03	; 3
    26be:	0e 94 31 12 	call	0x2462	; 0x2462 <_Z11osd_print_SPKc>
    26c2:	81 2f       	mov	r24, r17
    26c4:	0e 94 bd 08 	call	0x117a	; 0x117a <_ZN3OSD7write_SEh>
    26c8:	89 e1       	ldi	r24, 0x19	; 25
    26ca:	93 e0       	ldi	r25, 0x03	; 3
    26cc:	0e 94 31 12 	call	0x2462	; 0x2462 <_Z11osd_print_SPKc>
    26d0:	1a c0       	rjmp	.+52     	; 0x2706 <_ZL6panGPS5Point+0xbc>
    26d2:	c0 95       	com	r28
    26d4:	cc 1f       	adc	r28, r28
    26d6:	cc 27       	eor	r28, r28
    26d8:	cc 1f       	adc	r28, r28
    26da:	19 f0       	breq	.+6      	; 0x26e2 <_ZL6panGPS5Point+0x98>
    26dc:	83 e0       	ldi	r24, 0x03	; 3
    26de:	0e 94 bd 08 	call	0x117a	; 0x117a <_ZN3OSD7write_SEh>
    26e2:	65 e4       	ldi	r22, 0x45	; 69
    26e4:	74 e0       	ldi	r23, 0x04	; 4
    26e6:	8d 2f       	mov	r24, r29
    26e8:	0e 94 cf 0f 	call	0x1f9e	; 0x1f9e <_ZL11print_coord5PointPf.isra.14>
    26ec:	81 2f       	mov	r24, r17
    26ee:	0e 94 bd 08 	call	0x117a	; 0x117a <_ZN3OSD7write_SEh>
    26f2:	cc 23       	and	r28, r28
    26f4:	19 f0       	breq	.+6      	; 0x26fc <_ZL6panGPS5Point+0xb2>
    26f6:	84 e0       	ldi	r24, 0x04	; 4
    26f8:	0e 94 bd 08 	call	0x117a	; 0x117a <_ZN3OSD7write_SEh>
    26fc:	69 e4       	ldi	r22, 0x49	; 73
    26fe:	74 e0       	ldi	r23, 0x04	; 4
    2700:	8d 2f       	mov	r24, r29
    2702:	0e 94 cf 0f 	call	0x1f9e	; 0x1f9e <_ZL11print_coord5PointPf.isra.14>
    2706:	df 91       	pop	r29
    2708:	cf 91       	pop	r28
    270a:	1f 91       	pop	r17
    270c:	08 95       	ret

0000270e <_Z9MAX_writehh>:
    270e:	8e bd       	out	0x2e, r24	; 46
    2710:	0d b4       	in	r0, 0x2d	; 45
    2712:	07 fe       	sbrs	r0, 7
    2714:	fd cf       	rjmp	.-6      	; 0x2710 <_Z9MAX_writehh+0x2>
    2716:	8e b5       	in	r24, 0x2e	; 46
    2718:	6e bd       	out	0x2e, r22	; 46
    271a:	0d b4       	in	r0, 0x2d	; 45
    271c:	07 fe       	sbrs	r0, 7
    271e:	fd cf       	rjmp	.-6      	; 0x271a <_Z9MAX_writehh+0xc>
    2720:	8e b5       	in	r24, 0x2e	; 46
    2722:	08 95       	ret

00002724 <_Z8MAX_readh>:
    2724:	8e bd       	out	0x2e, r24	; 46
    2726:	0d b4       	in	r0, 0x2d	; 45
    2728:	07 fe       	sbrs	r0, 7
    272a:	fd cf       	rjmp	.-6      	; 0x2726 <_Z8MAX_readh+0x2>
    272c:	8e b5       	in	r24, 0x2e	; 46
    272e:	8f ef       	ldi	r24, 0xFF	; 255
    2730:	8e bd       	out	0x2e, r24	; 46
    2732:	0d b4       	in	r0, 0x2d	; 45
    2734:	07 fe       	sbrs	r0, 7
    2736:	fd cf       	rjmp	.-6      	; 0x2732 <_Z8MAX_readh+0xe>
    2738:	8e b5       	in	r24, 0x2e	; 46
    273a:	08 95       	ret

0000273c <_Z11delay_telemv>:
    273c:	8a ea       	ldi	r24, 0xAA	; 170
    273e:	90 e0       	ldi	r25, 0x00	; 0
    2740:	0e 94 7b 36 	call	0x6cf6	; 0x6cf6 <delayMicroseconds>
    2744:	08 95       	ret

00002746 <_Z11get_alt_num5Point>:
    2746:	95 fb       	bst	r25, 5
    2748:	22 27       	eor	r18, r18
    274a:	20 f9       	bld	r18, 0
    274c:	94 fd       	sbrc	r25, 4
    274e:	02 c0       	rjmp	.+4      	; 0x2754 <_Z11get_alt_num5Point+0xe>
    2750:	90 e0       	ldi	r25, 0x00	; 0
    2752:	01 c0       	rjmp	.+2      	; 0x2756 <_Z11get_alt_num5Point+0x10>
    2754:	92 e0       	ldi	r25, 0x02	; 2
    2756:	92 2b       	or	r25, r18
    2758:	86 fd       	sbrc	r24, 6
    275a:	02 c0       	rjmp	.+4      	; 0x2760 <_Z11get_alt_num5Point+0x1a>
    275c:	80 e0       	ldi	r24, 0x00	; 0
    275e:	01 c0       	rjmp	.+2      	; 0x2762 <_Z11get_alt_num5Point+0x1c>
    2760:	84 e0       	ldi	r24, 0x04	; 4
    2762:	89 2b       	or	r24, r25
    2764:	08 95       	ret

00002766 <_ZL9panCValue5Point>:
    2766:	1f 93       	push	r17
    2768:	cf 93       	push	r28
    276a:	df 93       	push	r29
    276c:	18 2f       	mov	r17, r24
    276e:	0e 94 a3 13 	call	0x2746	; 0x2746 <_Z11get_alt_num5Point>
    2772:	8c 5f       	subi	r24, 0xFC	; 252
    2774:	c8 2f       	mov	r28, r24
    2776:	d0 e0       	ldi	r29, 0x00	; 0
    2778:	17 fd       	sbrc	r17, 7
    277a:	07 c0       	rjmp	.+14     	; 0x278a <_ZL9panCValue5Point+0x24>
    277c:	be 01       	movw	r22, r28
    277e:	6f 5f       	subi	r22, 0xFF	; 255
    2780:	7f 4f       	sbci	r23, 0xFF	; 255
    2782:	86 e7       	ldi	r24, 0x76	; 118
    2784:	98 e0       	ldi	r25, 0x08	; 8
    2786:	0e 94 3f 0a 	call	0x147e	; 0x147e <_ZL12osd_printi_1PKci>
    278a:	cc 0f       	add	r28, r28
    278c:	dd 1f       	adc	r29, r29
    278e:	c1 54       	subi	r28, 0x41	; 65
    2790:	d9 4f       	sbci	r29, 0xF9	; 249
    2792:	68 81       	ld	r22, Y
    2794:	79 81       	ldd	r23, Y+1	; 0x01
    2796:	80 e4       	ldi	r24, 0x40	; 64
    2798:	9a e0       	ldi	r25, 0x0A	; 10
    279a:	0e 94 3f 0a 	call	0x147e	; 0x147e <_ZL12osd_printi_1PKci>
    279e:	df 91       	pop	r29
    27a0:	cf 91       	pop	r28
    27a2:	1f 91       	pop	r17
    27a4:	08 95       	ret

000027a6 <_ZL8panScale5Point>:
    27a6:	1f 93       	push	r17
    27a8:	cf 93       	push	r28
    27aa:	df 93       	push	r29
    27ac:	18 2f       	mov	r17, r24
    27ae:	c9 2f       	mov	r28, r25
    27b0:	0e 94 a3 13 	call	0x2746	; 0x2746 <_Z11get_alt_num5Point>
    27b4:	d4 e0       	ldi	r29, 0x04	; 4
    27b6:	d8 0f       	add	r29, r24
    27b8:	17 fd       	sbrc	r17, 7
    27ba:	08 c0       	rjmp	.+16     	; 0x27cc <_ZL8panScale5Point+0x26>
    27bc:	6d 2f       	mov	r22, r29
    27be:	70 e0       	ldi	r23, 0x00	; 0
    27c0:	6f 5f       	subi	r22, 0xFF	; 255
    27c2:	7f 4f       	sbci	r23, 0xFF	; 255
    27c4:	88 e1       	ldi	r24, 0x18	; 24
    27c6:	94 e0       	ldi	r25, 0x04	; 4
    27c8:	0e 94 3f 0a 	call	0x147e	; 0x147e <_ZL12osd_printi_1PKci>
    27cc:	c6 fb       	bst	r28, 6
    27ce:	66 27       	eor	r22, r22
    27d0:	60 f9       	bld	r22, 0
    27d2:	8d 2f       	mov	r24, r29
    27d4:	0e 94 8e 09 	call	0x131c	; 0x131c <_ZL12get_chan_poshh>
    27d8:	d8 2f       	mov	r29, r24
    27da:	c0 e0       	ldi	r28, 0x00	; 0
    27dc:	cd 13       	cpse	r28, r29
    27de:	02 c0       	rjmp	.+4      	; 0x27e4 <_ZL8panScale5Point+0x3e>
    27e0:	81 e8       	ldi	r24, 0x81	; 129
    27e2:	01 c0       	rjmp	.+2      	; 0x27e6 <_ZL8panScale5Point+0x40>
    27e4:	80 e8       	ldi	r24, 0x80	; 128
    27e6:	0e 94 bd 08 	call	0x117a	; 0x117a <_ZN3OSD7write_SEh>
    27ea:	cf 5f       	subi	r28, 0xFF	; 255
    27ec:	c5 30       	cpi	r28, 0x05	; 5
    27ee:	b1 f7       	brne	.-20     	; 0x27dc <_ZL8panScale5Point+0x36>
    27f0:	df 91       	pop	r29
    27f2:	cf 91       	pop	r28
    27f4:	1f 91       	pop	r17
    27f6:	08 95       	ret

000027f8 <_ZL8panState5Point>:
    27f8:	1f 93       	push	r17
    27fa:	cf 93       	push	r28
    27fc:	df 93       	push	r29
    27fe:	18 2f       	mov	r17, r24
    2800:	c9 2f       	mov	r28, r25
    2802:	0e 94 a3 13 	call	0x2746	; 0x2746 <_Z11get_alt_num5Point>
    2806:	d4 e0       	ldi	r29, 0x04	; 4
    2808:	d8 0f       	add	r29, r24
    280a:	17 fd       	sbrc	r17, 7
    280c:	08 c0       	rjmp	.+16     	; 0x281e <_ZL8panState5Point+0x26>
    280e:	6d 2f       	mov	r22, r29
    2810:	70 e0       	ldi	r23, 0x00	; 0
    2812:	6f 5f       	subi	r22, 0xFF	; 255
    2814:	7f 4f       	sbci	r23, 0xFF	; 255
    2816:	86 e7       	ldi	r24, 0x76	; 118
    2818:	98 e0       	ldi	r25, 0x08	; 8
    281a:	0e 94 3f 0a 	call	0x147e	; 0x147e <_ZL12osd_printi_1PKci>
    281e:	c6 fb       	bst	r28, 6
    2820:	66 27       	eor	r22, r22
    2822:	60 f9       	bld	r22, 0
    2824:	8d 2f       	mov	r24, r29
    2826:	0e 94 8e 09 	call	0x131c	; 0x131c <_ZL12get_chan_poshh>
    282a:	6d eb       	ldi	r22, 0xBD	; 189
    282c:	78 e0       	ldi	r23, 0x08	; 8
    282e:	0e 94 0f 12 	call	0x241e	; 0x241e <_Z19print_eeprom_stringhPFvhE>
    2832:	df 91       	pop	r29
    2834:	cf 91       	pop	r28
    2836:	1f 91       	pop	r17
    2838:	08 95       	ret

0000283a <_Z14get_alt_filter5Point>:
    283a:	96 fb       	bst	r25, 6
    283c:	22 27       	eor	r18, r18
    283e:	20 f9       	bld	r18, 0
    2840:	30 e0       	ldi	r19, 0x00	; 0
    2842:	95 fd       	sbrc	r25, 5
    2844:	03 c0       	rjmp	.+6      	; 0x284c <_Z14get_alt_filter5Point+0x12>
    2846:	80 e0       	ldi	r24, 0x00	; 0
    2848:	90 e0       	ldi	r25, 0x00	; 0
    284a:	02 c0       	rjmp	.+4      	; 0x2850 <_Z14get_alt_filter5Point+0x16>
    284c:	82 e0       	ldi	r24, 0x02	; 2
    284e:	90 e0       	ldi	r25, 0x00	; 0
    2850:	28 2b       	or	r18, r24
    2852:	39 2b       	or	r19, r25
    2854:	21 50       	subi	r18, 0x01	; 1
    2856:	31 09       	sbc	r19, r1
    2858:	23 30       	cpi	r18, 0x03	; 3
    285a:	31 05       	cpc	r19, r1
    285c:	28 f4       	brcc	.+10     	; 0x2868 <_Z14get_alt_filter5Point+0x2e>
    285e:	f9 01       	movw	r30, r18
    2860:	e0 5e       	subi	r30, 0xE0	; 224
    2862:	fe 4f       	sbci	r31, 0xFE	; 254
    2864:	80 81       	ld	r24, Z
    2866:	08 95       	ret
    2868:	80 e0       	ldi	r24, 0x00	; 0
    286a:	08 95       	ret

0000286c <_ZL8panClimb5Point>:
    286c:	cf 92       	push	r12
    286e:	df 92       	push	r13
    2870:	ef 92       	push	r14
    2872:	ff 92       	push	r15
    2874:	cf 93       	push	r28
    2876:	df 93       	push	r29
    2878:	d8 2f       	mov	r29, r24
    287a:	c9 2f       	mov	r28, r25
    287c:	0e 94 1d 14 	call	0x283a	; 0x283a <_Z14get_alt_filter5Point>
    2880:	80 93 0f 01 	sts	0x010F, r24	; 0x80010f <climb_filter>
    2884:	c7 fd       	sbrc	r28, 7
    2886:	47 c0       	rjmp	.+142    	; 0x2916 <_ZL8panClimb5Point+0xaa>
    2888:	c4 ff       	sbrs	r28, 4
    288a:	2a c0       	rjmp	.+84     	; 0x28e0 <_ZL8panClimb5Point+0x74>
    288c:	81 e0       	ldi	r24, 0x01	; 1
    288e:	80 93 c7 03 	sts	0x03C7, r24	; 0x8003c7 <lflags+0x13>
    2892:	29 e8       	ldi	r18, 0x89	; 137
    2894:	38 e8       	ldi	r19, 0x88	; 136
    2896:	48 e8       	ldi	r20, 0x88	; 136
    2898:	5c e3       	ldi	r21, 0x3C	; 60
    289a:	60 91 f6 06 	lds	r22, 0x06F6	; 0x8006f6 <_ZL14vertical_speed>
    289e:	70 91 f7 06 	lds	r23, 0x06F7	; 0x8006f7 <_ZL14vertical_speed+0x1>
    28a2:	80 91 f8 06 	lds	r24, 0x06F8	; 0x8006f8 <_ZL14vertical_speed+0x2>
    28a6:	90 91 f9 06 	lds	r25, 0x06F9	; 0x8006f9 <_ZL14vertical_speed+0x3>
    28aa:	0e 94 6d 42 	call	0x84da	; 0x84da <__mulsf3>
    28ae:	6b 01       	movw	r12, r22
    28b0:	7c 01       	movw	r14, r24
    28b2:	0e 94 12 41 	call	0x8224	; 0x8224 <__fixsfsi>
    28b6:	9b 01       	movw	r18, r22
    28b8:	77 ff       	sbrs	r23, 7
    28ba:	04 c0       	rjmp	.+8      	; 0x28c4 <_ZL8panClimb5Point+0x58>
    28bc:	22 27       	eor	r18, r18
    28be:	33 27       	eor	r19, r19
    28c0:	26 1b       	sub	r18, r22
    28c2:	37 0b       	sbc	r19, r23
    28c4:	2a 30       	cpi	r18, 0x0A	; 10
    28c6:	31 05       	cpc	r19, r1
    28c8:	04 f5       	brge	.+64     	; 0x290a <_ZL8panClimb5Point+0x9e>
    28ca:	d6 fd       	sbrc	r29, 6
    28cc:	03 c0       	rjmp	.+6      	; 0x28d4 <_ZL8panClimb5Point+0x68>
    28ce:	87 e9       	ldi	r24, 0x97	; 151
    28d0:	93 e0       	ldi	r25, 0x03	; 3
    28d2:	02 c0       	rjmp	.+4      	; 0x28d8 <_ZL8panClimb5Point+0x6c>
    28d4:	80 e9       	ldi	r24, 0x90	; 144
    28d6:	93 e0       	ldi	r25, 0x03	; 3
    28d8:	28 e1       	ldi	r18, 0x18	; 24
    28da:	b7 01       	movw	r22, r14
    28dc:	a6 01       	movw	r20, r12
    28de:	12 c0       	rjmp	.+36     	; 0x2904 <_ZL8panClimb5Point+0x98>
    28e0:	10 92 c7 03 	sts	0x03C7, r1	; 0x8003c7 <lflags+0x13>
    28e4:	e0 91 bd 06 	lds	r30, 0x06BD	; 0x8006bd <_ZL7measure>
    28e8:	f0 91 be 06 	lds	r31, 0x06BE	; 0x8006be <_ZL7measure+0x1>
    28ec:	72 96       	adiw	r30, 0x12	; 18
    28ee:	24 91       	lpm	r18, Z
    28f0:	40 91 f6 06 	lds	r20, 0x06F6	; 0x8006f6 <_ZL14vertical_speed>
    28f4:	50 91 f7 06 	lds	r21, 0x06F7	; 0x8006f7 <_ZL14vertical_speed+0x1>
    28f8:	60 91 f8 06 	lds	r22, 0x06F8	; 0x8006f8 <_ZL14vertical_speed+0x2>
    28fc:	70 91 f9 06 	lds	r23, 0x06F9	; 0x8006f9 <_ZL14vertical_speed+0x3>
    2900:	89 e8       	ldi	r24, 0x89	; 137
    2902:	93 e0       	ldi	r25, 0x03	; 3
    2904:	0e 94 8e 0c 	call	0x191c	; 0x191c <_ZL12osd_printf_2PKcfh>
    2908:	06 c0       	rjmp	.+12     	; 0x2916 <_ZL8panClimb5Point+0xaa>
    290a:	24 36       	cpi	r18, 0x64	; 100
    290c:	31 05       	cpc	r19, r1
    290e:	14 f3       	brlt	.-60     	; 0x28d4 <_ZL8panClimb5Point+0x68>
    2910:	89 e8       	ldi	r24, 0x89	; 137
    2912:	93 e0       	ldi	r25, 0x03	; 3
    2914:	e1 cf       	rjmp	.-62     	; 0x28d8 <_ZL8panClimb5Point+0x6c>
    2916:	df 91       	pop	r29
    2918:	cf 91       	pop	r28
    291a:	ff 90       	pop	r15
    291c:	ef 90       	pop	r14
    291e:	df 90       	pop	r13
    2920:	cf 90       	pop	r12
    2922:	08 95       	ret

00002924 <_Z9readPanelh>:
    2924:	a2 e0       	ldi	r26, 0x02	; 2
    2926:	b0 e0       	ldi	r27, 0x00	; 0
    2928:	e8 e9       	ldi	r30, 0x98	; 152
    292a:	f4 e1       	ldi	r31, 0x14	; 20
    292c:	0c 94 79 44 	jmp	0x88f2	; 0x88f2 <__prologue_saves__+0x20>
    2930:	90 91 56 06 	lds	r25, 0x0656	; 0x800656 <_ZL6panelN>
    2934:	68 2f       	mov	r22, r24
    2936:	70 e0       	ldi	r23, 0x00	; 0
    2938:	66 0f       	add	r22, r22
    293a:	77 1f       	adc	r23, r23
    293c:	80 e8       	ldi	r24, 0x80	; 128
    293e:	98 9f       	mul	r25, r24
    2940:	60 0d       	add	r22, r0
    2942:	71 1d       	adc	r23, r1
    2944:	11 24       	eor	r1, r1
    2946:	42 e0       	ldi	r20, 0x02	; 2
    2948:	50 e0       	ldi	r21, 0x00	; 0
    294a:	ce 01       	movw	r24, r28
    294c:	01 96       	adiw	r24, 0x01	; 1
    294e:	0e 94 55 11 	call	0x22aa	; 0x22aa <_Z15eeprom_read_lenPhjj>
    2952:	89 81       	ldd	r24, Y+1	; 0x01
    2954:	9a 81       	ldd	r25, Y+2	; 0x02
    2956:	22 96       	adiw	r28, 0x02	; 2
    2958:	e2 e0       	ldi	r30, 0x02	; 2
    295a:	0c 94 95 44 	jmp	0x892a	; 0x892a <__epilogue_restores__+0x20>

0000295e <_Z11millis_plusPmj>:
    295e:	0f 93       	push	r16
    2960:	1f 93       	push	r17
    2962:	cf 93       	push	r28
    2964:	df 93       	push	r29
    2966:	ec 01       	movw	r28, r24
    2968:	8b 01       	movw	r16, r22
    296a:	0e 94 0e 36 	call	0x6c1c	; 0x6c1c <millis>
    296e:	dc 01       	movw	r26, r24
    2970:	cb 01       	movw	r24, r22
    2972:	80 0f       	add	r24, r16
    2974:	91 1f       	adc	r25, r17
    2976:	a1 1d       	adc	r26, r1
    2978:	b1 1d       	adc	r27, r1
    297a:	88 83       	st	Y, r24
    297c:	99 83       	std	Y+1, r25	; 0x01
    297e:	aa 83       	std	Y+2, r26	; 0x02
    2980:	bb 83       	std	Y+3, r27	; 0x03
    2982:	df 91       	pop	r29
    2984:	cf 91       	pop	r28
    2986:	1f 91       	pop	r17
    2988:	0f 91       	pop	r16
    298a:	08 95       	ret

0000298c <_Z9long_plusPmj>:
    298c:	9b 01       	movw	r18, r22
    298e:	fc 01       	movw	r30, r24
    2990:	40 81       	ld	r20, Z
    2992:	51 81       	ldd	r21, Z+1	; 0x01
    2994:	62 81       	ldd	r22, Z+2	; 0x02
    2996:	73 81       	ldd	r23, Z+3	; 0x03
    2998:	42 0f       	add	r20, r18
    299a:	53 1f       	adc	r21, r19
    299c:	61 1d       	adc	r22, r1
    299e:	71 1d       	adc	r23, r1
    29a0:	40 83       	st	Z, r20
    29a2:	51 83       	std	Z+1, r21	; 0x01
    29a4:	62 83       	std	Z+2, r22	; 0x02
    29a6:	73 83       	std	Z+3, r23	; 0x03
    29a8:	08 95       	ret

000029aa <_Z12get_converthv>:
    29aa:	e0 91 bd 06 	lds	r30, 0x06BD	; 0x8006bd <_ZL7measure>
    29ae:	f0 91 be 06 	lds	r31, 0x06BE	; 0x8006be <_ZL7measure+0x1>
    29b2:	34 96       	adiw	r30, 0x04	; 4
    29b4:	65 91       	lpm	r22, Z+
    29b6:	75 91       	lpm	r23, Z+
    29b8:	85 91       	lpm	r24, Z+
    29ba:	94 91       	lpm	r25, Z
    29bc:	08 95       	ret

000029be <_ZL13printFullDistf>:
    29be:	cf 92       	push	r12
    29c0:	df 92       	push	r13
    29c2:	ef 92       	push	r14
    29c4:	ff 92       	push	r15
    29c6:	cf 93       	push	r28
    29c8:	df 93       	push	r29
    29ca:	6b 01       	movw	r12, r22
    29cc:	7c 01       	movw	r14, r24
    29ce:	0e 94 d5 14 	call	0x29aa	; 0x29aa <_Z12get_converthv>
    29d2:	a7 01       	movw	r20, r14
    29d4:	96 01       	movw	r18, r12
    29d6:	0e 94 6d 42 	call	0x84da	; 0x84da <__mulsf3>
    29da:	6b 01       	movw	r12, r22
    29dc:	7c 01       	movw	r14, r24
    29de:	20 e0       	ldi	r18, 0x00	; 0
    29e0:	3c e3       	ldi	r19, 0x3C	; 60
    29e2:	4c e1       	ldi	r20, 0x1C	; 28
    29e4:	56 e4       	ldi	r21, 0x46	; 70
    29e6:	0e 94 96 40 	call	0x812c	; 0x812c <__cmpsf2>
    29ea:	c0 91 bd 06 	lds	r28, 0x06BD	; 0x8006bd <_ZL7measure>
    29ee:	d0 91 be 06 	lds	r29, 0x06BE	; 0x8006be <_ZL7measure+0x1>
    29f2:	fe 01       	movw	r30, r28
    29f4:	18 16       	cp	r1, r24
    29f6:	3c f0       	brlt	.+14     	; 0x2a06 <_ZL13printFullDistf+0x48>
    29f8:	39 96       	adiw	r30, 0x09	; 9
    29fa:	24 91       	lpm	r18, Z
    29fc:	b7 01       	movw	r22, r14
    29fe:	a6 01       	movw	r20, r12
    2a00:	80 e2       	ldi	r24, 0x20	; 32
    2a02:	9a e0       	ldi	r25, 0x0A	; 10
    2a04:	24 c0       	rjmp	.+72     	; 0x2a4e <_ZL13printFullDistf+0x90>
    2a06:	70 96       	adiw	r30, 0x10	; 16
    2a08:	65 91       	lpm	r22, Z+
    2a0a:	74 91       	lpm	r23, Z
    2a0c:	80 e0       	ldi	r24, 0x00	; 0
    2a0e:	90 e0       	ldi	r25, 0x00	; 0
    2a10:	0e 94 48 41 	call	0x8290	; 0x8290 <__floatunsisf>
    2a14:	9b 01       	movw	r18, r22
    2a16:	ac 01       	movw	r20, r24
    2a18:	c7 01       	movw	r24, r14
    2a1a:	b6 01       	movw	r22, r12
    2a1c:	0e 94 a0 40 	call	0x8140	; 0x8140 <__divsf3>
    2a20:	6b 01       	movw	r12, r22
    2a22:	7c 01       	movw	r14, r24
    2a24:	0e 94 12 41 	call	0x8224	; 0x8224 <__fixsfsi>
    2a28:	6a 30       	cpi	r22, 0x0A	; 10
    2a2a:	71 05       	cpc	r23, r1
    2a2c:	34 f0       	brlt	.+12     	; 0x2a3a <_ZL13printFullDistf+0x7c>
    2a2e:	64 36       	cpi	r22, 0x64	; 100
    2a30:	71 05       	cpc	r23, r1
    2a32:	34 f0       	brlt	.+12     	; 0x2a40 <_ZL13printFullDistf+0x82>
    2a34:	80 e2       	ldi	r24, 0x20	; 32
    2a36:	9a e0       	ldi	r25, 0x0A	; 10
    2a38:	05 c0       	rjmp	.+10     	; 0x2a44 <_ZL13printFullDistf+0x86>
    2a3a:	8c e2       	ldi	r24, 0x2C	; 44
    2a3c:	9a e0       	ldi	r25, 0x0A	; 10
    2a3e:	02 c0       	rjmp	.+4      	; 0x2a44 <_ZL13printFullDistf+0x86>
    2a40:	86 e2       	ldi	r24, 0x26	; 38
    2a42:	9a e0       	ldi	r25, 0x0A	; 10
    2a44:	fe 01       	movw	r30, r28
    2a46:	3f 96       	adiw	r30, 0x0f	; 15
    2a48:	24 91       	lpm	r18, Z
    2a4a:	b7 01       	movw	r22, r14
    2a4c:	a6 01       	movw	r20, r12
    2a4e:	0e 94 8e 0c 	call	0x191c	; 0x191c <_ZL12osd_printf_2PKcfh>
    2a52:	df 91       	pop	r29
    2a54:	cf 91       	pop	r28
    2a56:	ff 90       	pop	r15
    2a58:	ef 90       	pop	r14
    2a5a:	df 90       	pop	r13
    2a5c:	cf 90       	pop	r12
    2a5e:	08 95       	ret

00002a60 <_ZL10panHomeDis5Point>:
    2a60:	96 fb       	bst	r25, 6
    2a62:	88 27       	eor	r24, r24
    2a64:	80 f9       	bld	r24, 0
    2a66:	80 93 d1 03 	sts	0x03D1, r24	; 0x8003d1 <lflags+0x1d>
    2a6a:	80 91 c2 03 	lds	r24, 0x03C2	; 0x8003c2 <lflags+0xe>
    2a6e:	88 23       	and	r24, r24
    2a70:	71 f0       	breq	.+28     	; 0x2a8e <_ZL10panHomeDis5Point+0x2e>
    2a72:	97 fd       	sbrc	r25, 7
    2a74:	0c c0       	rjmp	.+24     	; 0x2a8e <_ZL10panHomeDis5Point+0x2e>
    2a76:	60 91 87 06 	lds	r22, 0x0687	; 0x800687 <_ZL17osd_home_distance>
    2a7a:	70 91 88 06 	lds	r23, 0x0688	; 0x800688 <_ZL17osd_home_distance+0x1>
    2a7e:	80 91 89 06 	lds	r24, 0x0689	; 0x800689 <_ZL17osd_home_distance+0x2>
    2a82:	90 91 8a 06 	lds	r25, 0x068A	; 0x80068a <_ZL17osd_home_distance+0x3>
    2a86:	0e 94 4a 41 	call	0x8294	; 0x8294 <__floatsisf>
    2a8a:	0e 94 df 14 	call	0x29be	; 0x29be <_ZL13printFullDistf>
    2a8e:	08 95       	ret

00002a90 <_ZL10panHomeAlt5Point>:
    2a90:	40 91 d7 06 	lds	r20, 0x06D7	; 0x8006d7 <_ZL15osd_alt_to_home>
    2a94:	50 91 d8 06 	lds	r21, 0x06D8	; 0x8006d8 <_ZL15osd_alt_to_home+0x1>
    2a98:	60 91 d9 06 	lds	r22, 0x06D9	; 0x8006d9 <_ZL15osd_alt_to_home+0x2>
    2a9c:	70 91 da 06 	lds	r23, 0x06DA	; 0x8006da <_ZL15osd_alt_to_home+0x3>
    2aa0:	96 fd       	sbrc	r25, 6
    2aa2:	0a c0       	rjmp	.+20     	; 0x2ab8 <_ZL10panHomeAlt5Point+0x28>
    2aa4:	41 15       	cp	r20, r1
    2aa6:	51 05       	cpc	r21, r1
    2aa8:	61 05       	cpc	r22, r1
    2aaa:	71 05       	cpc	r23, r1
    2aac:	29 f0       	breq	.+10     	; 0x2ab8 <_ZL10panHomeAlt5Point+0x28>
    2aae:	cb 01       	movw	r24, r22
    2ab0:	ba 01       	movw	r22, r20
    2ab2:	0e 94 df 14 	call	0x29be	; 0x29be <_ZL13printFullDistf>
    2ab6:	08 95       	ret
    2ab8:	40 91 7c 06 	lds	r20, 0x067C	; 0x80067c <_ZL11osd_alt_mav>
    2abc:	50 91 7d 06 	lds	r21, 0x067D	; 0x80067d <_ZL11osd_alt_mav+0x1>
    2ac0:	60 91 7e 06 	lds	r22, 0x067E	; 0x80067e <_ZL11osd_alt_mav+0x2>
    2ac4:	70 91 7f 06 	lds	r23, 0x067F	; 0x80067f <_ZL11osd_alt_mav+0x3>
    2ac8:	f2 cf       	rjmp	.-28     	; 0x2aae <_ZL10panHomeAlt5Point+0x1e>

00002aca <_ZL11panDistance5Point>:
    2aca:	60 91 f2 06 	lds	r22, 0x06F2	; 0x8006f2 <_ZL13trip_distance>
    2ace:	70 91 f3 06 	lds	r23, 0x06F3	; 0x8006f3 <_ZL13trip_distance+0x1>
    2ad2:	80 91 f4 06 	lds	r24, 0x06F4	; 0x8006f4 <_ZL13trip_distance+0x2>
    2ad6:	90 91 f5 06 	lds	r25, 0x06F5	; 0x8006f5 <_ZL13trip_distance+0x3>
    2ada:	0e 94 df 14 	call	0x29be	; 0x29be <_ZL13printFullDistf>
    2ade:	08 95       	ret

00002ae0 <_Z12get_convertsv>:
    2ae0:	e0 91 bd 06 	lds	r30, 0x06BD	; 0x8006bd <_ZL7measure>
    2ae4:	f0 91 be 06 	lds	r31, 0x06BE	; 0x8006be <_ZL7measure+0x1>
    2ae8:	65 91       	lpm	r22, Z+
    2aea:	75 91       	lpm	r23, Z+
    2aec:	85 91       	lpm	r24, Z+
    2aee:	94 91       	lpm	r25, Z
    2af0:	08 95       	ret

00002af2 <_ZL13printSpeedCnvPKcPfh.isra.21>:
    2af2:	cf 92       	push	r12
    2af4:	df 92       	push	r13
    2af6:	ef 92       	push	r14
    2af8:	ff 92       	push	r15
    2afa:	1f 93       	push	r17
    2afc:	cf 93       	push	r28
    2afe:	df 93       	push	r29
    2b00:	ec 01       	movw	r28, r24
    2b02:	6a 01       	movw	r12, r20
    2b04:	7b 01       	movw	r14, r22
    2b06:	12 2f       	mov	r17, r18
    2b08:	0e 94 70 15 	call	0x2ae0	; 0x2ae0 <_Z12get_convertsv>
    2b0c:	a7 01       	movw	r20, r14
    2b0e:	96 01       	movw	r18, r12
    2b10:	0e 94 6d 42 	call	0x84da	; 0x84da <__mulsf3>
    2b14:	11 23       	and	r17, r17
    2b16:	41 f0       	breq	.+16     	; 0x2b28 <_ZL13printSpeedCnvPKcPfh.isra.21+0x36>
    2b18:	24 ee       	ldi	r18, 0xE4	; 228
    2b1a:	38 e3       	ldi	r19, 0x38	; 56
    2b1c:	4e e8       	ldi	r20, 0x8E	; 142
    2b1e:	5e e3       	ldi	r21, 0x3E	; 62
    2b20:	0e 94 6d 42 	call	0x84da	; 0x84da <__mulsf3>
    2b24:	28 e1       	ldi	r18, 0x18	; 24
    2b26:	06 c0       	rjmp	.+12     	; 0x2b34 <_ZL13printSpeedCnvPKcPfh.isra.21+0x42>
    2b28:	e0 91 bd 06 	lds	r30, 0x06BD	; 0x8006bd <_ZL7measure>
    2b2c:	f0 91 be 06 	lds	r31, 0x06BE	; 0x8006be <_ZL7measure+0x1>
    2b30:	38 96       	adiw	r30, 0x08	; 8
    2b32:	24 91       	lpm	r18, Z
    2b34:	ab 01       	movw	r20, r22
    2b36:	bc 01       	movw	r22, r24
    2b38:	ce 01       	movw	r24, r28
    2b3a:	0e 94 8e 0c 	call	0x191c	; 0x191c <_ZL12osd_printf_2PKcfh>
    2b3e:	df 91       	pop	r29
    2b40:	cf 91       	pop	r28
    2b42:	1f 91       	pop	r17
    2b44:	ff 90       	pop	r15
    2b46:	ef 90       	pop	r14
    2b48:	df 90       	pop	r13
    2b4a:	cf 90       	pop	r12
    2b4c:	08 95       	ret

00002b4e <_ZL11panAirSpeed5Point>:
    2b4e:	96 fb       	bst	r25, 6
    2b50:	22 27       	eor	r18, r18
    2b52:	20 f9       	bld	r18, 0
    2b54:	40 91 74 06 	lds	r20, 0x0674	; 0x800674 <_ZL12osd_airspeed>
    2b58:	50 91 75 06 	lds	r21, 0x0675	; 0x800675 <_ZL12osd_airspeed+0x1>
    2b5c:	60 91 76 06 	lds	r22, 0x0676	; 0x800676 <_ZL12osd_airspeed+0x2>
    2b60:	70 91 77 06 	lds	r23, 0x0677	; 0x800677 <_ZL12osd_airspeed+0x3>
    2b64:	84 e4       	ldi	r24, 0x44	; 68
    2b66:	9a e0       	ldi	r25, 0x0A	; 10
    2b68:	0e 94 79 15 	call	0x2af2	; 0x2af2 <_ZL13printSpeedCnvPKcPfh.isra.21>
    2b6c:	08 95       	ret

00002b6e <_ZL6panVel5Point>:
    2b6e:	96 fb       	bst	r25, 6
    2b70:	22 27       	eor	r18, r18
    2b72:	20 f9       	bld	r18, 0
    2b74:	40 91 6a 06 	lds	r20, 0x066A	; 0x80066a <_ZL15osd_groundspeed>
    2b78:	50 91 6b 06 	lds	r21, 0x066B	; 0x80066b <_ZL15osd_groundspeed+0x1>
    2b7c:	60 91 6c 06 	lds	r22, 0x066C	; 0x80066c <_ZL15osd_groundspeed+0x2>
    2b80:	70 91 6d 06 	lds	r23, 0x066D	; 0x80066d <_ZL15osd_groundspeed+0x3>
    2b84:	84 e4       	ldi	r24, 0x44	; 68
    2b86:	9a e0       	ldi	r25, 0x0A	; 10
    2b88:	0e 94 79 15 	call	0x2af2	; 0x2af2 <_ZL13printSpeedCnvPKcPfh.isra.21>
    2b8c:	08 95       	ret

00002b8e <_ZL10print_listPK7Formatsh>:
    2b8e:	a0 e0       	ldi	r26, 0x00	; 0
    2b90:	b0 e0       	ldi	r27, 0x00	; 0
    2b92:	ed ec       	ldi	r30, 0xCD	; 205
    2b94:	f5 e1       	ldi	r31, 0x15	; 21
    2b96:	0c 94 73 44 	jmp	0x88e6	; 0x88e6 <__prologue_saves__+0x14>
    2b9a:	ec 01       	movw	r28, r24
    2b9c:	d6 2e       	mov	r13, r22
    2b9e:	fe 01       	movw	r30, r28
    2ba0:	05 91       	lpm	r16, Z+
    2ba2:	14 91       	lpm	r17, Z
    2ba4:	01 15       	cp	r16, r1
    2ba6:	11 05       	cpc	r17, r1
    2ba8:	09 f4       	brne	.+2      	; 0x2bac <_ZL10print_listPK7Formatsh+0x1e>
    2baa:	6d c0       	rjmp	.+218    	; 0x2c86 <_ZL10print_listPK7Formatsh+0xf8>
    2bac:	fe 01       	movw	r30, r28
    2bae:	32 96       	adiw	r30, 0x02	; 2
    2bb0:	84 91       	lpm	r24, Z
    2bb2:	81 11       	cpse	r24, r1
    2bb4:	0e 94 bd 08 	call	0x117a	; 0x117a <_ZN3OSD7write_SEh>
    2bb8:	fe 01       	movw	r30, r28
    2bba:	33 96       	adiw	r30, 0x03	; 3
    2bbc:	84 91       	lpm	r24, Z
    2bbe:	31 96       	adiw	r30, 0x01	; 1
    2bc0:	e5 90       	lpm	r14, Z+
    2bc2:	f4 90       	lpm	r15, Z
    2bc4:	89 36       	cpi	r24, 0x69	; 105
    2bc6:	91 f0       	breq	.+36     	; 0x2bec <_ZL10print_listPK7Formatsh+0x5e>
    2bc8:	30 f4       	brcc	.+12     	; 0x2bd6 <_ZL10print_listPK7Formatsh+0x48>
    2bca:	81 36       	cpi	r24, 0x61	; 97
    2bcc:	09 f4       	brne	.+2      	; 0x2bd0 <_ZL10print_listPK7Formatsh+0x42>
    2bce:	3f c0       	rjmp	.+126    	; 0x2c4e <_ZL10print_listPK7Formatsh+0xc0>
    2bd0:	88 36       	cpi	r24, 0x68	; 104
    2bd2:	c1 f0       	breq	.+48     	; 0x2c04 <_ZL10print_listPK7Formatsh+0x76>
    2bd4:	04 c0       	rjmp	.+8      	; 0x2bde <_ZL10print_listPK7Formatsh+0x50>
    2bd6:	83 37       	cpi	r24, 0x73	; 115
    2bd8:	f1 f0       	breq	.+60     	; 0x2c16 <_ZL10print_listPK7Formatsh+0x88>
    2bda:	86 37       	cpi	r24, 0x76	; 118
    2bdc:	29 f1       	breq	.+74     	; 0x2c28 <_ZL10print_listPK7Formatsh+0x9a>
    2bde:	50 e2       	ldi	r21, 0x20	; 32
    2be0:	c5 2e       	mov	r12, r21
    2be2:	60 e0       	ldi	r22, 0x00	; 0
    2be4:	70 e0       	ldi	r23, 0x00	; 0
    2be6:	80 e8       	ldi	r24, 0x80	; 128
    2be8:	9f e3       	ldi	r25, 0x3F	; 63
    2bea:	3a c0       	rjmp	.+116    	; 0x2c60 <_ZL10print_listPK7Formatsh+0xd2>
    2bec:	f7 01       	movw	r30, r14
    2bee:	60 81       	ld	r22, Z
    2bf0:	71 81       	ldd	r23, Z+1	; 0x01
    2bf2:	07 2e       	mov	r0, r23
    2bf4:	00 0c       	add	r0, r0
    2bf6:	88 0b       	sbc	r24, r24
    2bf8:	99 0b       	sbc	r25, r25
    2bfa:	0e 94 4a 41 	call	0x8294	; 0x8294 <__floatsisf>
    2bfe:	40 e2       	ldi	r20, 0x20	; 32
    2c00:	c4 2e       	mov	r12, r20
    2c02:	35 c0       	rjmp	.+106    	; 0x2c6e <_ZL10print_listPK7Formatsh+0xe0>
    2c04:	e0 91 bd 06 	lds	r30, 0x06BD	; 0x8006bd <_ZL7measure>
    2c08:	f0 91 be 06 	lds	r31, 0x06BE	; 0x8006be <_ZL7measure+0x1>
    2c0c:	39 96       	adiw	r30, 0x09	; 9
    2c0e:	c4 90       	lpm	r12, Z
    2c10:	0e 94 d5 14 	call	0x29aa	; 0x29aa <_Z12get_converthv>
    2c14:	25 c0       	rjmp	.+74     	; 0x2c60 <_ZL10print_listPK7Formatsh+0xd2>
    2c16:	e0 91 bd 06 	lds	r30, 0x06BD	; 0x8006bd <_ZL7measure>
    2c1a:	f0 91 be 06 	lds	r31, 0x06BE	; 0x8006be <_ZL7measure+0x1>
    2c1e:	38 96       	adiw	r30, 0x08	; 8
    2c20:	c4 90       	lpm	r12, Z
    2c22:	0e 94 70 15 	call	0x2ae0	; 0x2ae0 <_Z12get_convertsv>
    2c26:	1c c0       	rjmp	.+56     	; 0x2c60 <_ZL10print_listPK7Formatsh+0xd2>
    2c28:	0e 94 d5 14 	call	0x29aa	; 0x29aa <_Z12get_converthv>
    2c2c:	20 91 c7 03 	lds	r18, 0x03C7	; 0x8003c7 <lflags+0x13>
    2c30:	21 11       	cpse	r18, r1
    2c32:	14 c0       	rjmp	.+40     	; 0x2c5c <_ZL10print_listPK7Formatsh+0xce>
    2c34:	e0 91 bd 06 	lds	r30, 0x06BD	; 0x8006bd <_ZL7measure>
    2c38:	f0 91 be 06 	lds	r31, 0x06BE	; 0x8006be <_ZL7measure+0x1>
    2c3c:	72 96       	adiw	r30, 0x12	; 18
    2c3e:	c4 90       	lpm	r12, Z
    2c40:	20 e0       	ldi	r18, 0x00	; 0
    2c42:	30 e0       	ldi	r19, 0x00	; 0
    2c44:	40 e7       	ldi	r20, 0x70	; 112
    2c46:	52 e4       	ldi	r21, 0x42	; 66
    2c48:	0e 94 6d 42 	call	0x84da	; 0x84da <__mulsf3>
    2c4c:	09 c0       	rjmp	.+18     	; 0x2c60 <_ZL10print_listPK7Formatsh+0xd2>
    2c4e:	31 e4       	ldi	r19, 0x41	; 65
    2c50:	c3 2e       	mov	r12, r19
    2c52:	6a e0       	ldi	r22, 0x0A	; 10
    2c54:	77 ed       	ldi	r23, 0xD7	; 215
    2c56:	83 e2       	ldi	r24, 0x23	; 35
    2c58:	9c e3       	ldi	r25, 0x3C	; 60
    2c5a:	02 c0       	rjmp	.+4      	; 0x2c60 <_ZL10print_listPK7Formatsh+0xd2>
    2c5c:	28 e1       	ldi	r18, 0x18	; 24
    2c5e:	c2 2e       	mov	r12, r18
    2c60:	f7 01       	movw	r30, r14
    2c62:	20 81       	ld	r18, Z
    2c64:	31 81       	ldd	r19, Z+1	; 0x01
    2c66:	42 81       	ldd	r20, Z+2	; 0x02
    2c68:	53 81       	ldd	r21, Z+3	; 0x03
    2c6a:	0e 94 6d 42 	call	0x84da	; 0x84da <__mulsf3>
    2c6e:	2c 2d       	mov	r18, r12
    2c70:	ab 01       	movw	r20, r22
    2c72:	bc 01       	movw	r22, r24
    2c74:	c8 01       	movw	r24, r16
    2c76:	0e 94 8e 0c 	call	0x191c	; 0x191c <_ZL12osd_printf_2PKcfh>
    2c7a:	0e 94 37 0a 	call	0x146e	; 0x146e <_ZL6osd_nlv>
    2c7e:	27 96       	adiw	r28, 0x07	; 7
    2c80:	da 94       	dec	r13
    2c82:	d1 10       	cpse	r13, r1
    2c84:	8c cf       	rjmp	.-232    	; 0x2b9e <_ZL10print_listPK7Formatsh+0x10>
    2c86:	cd b7       	in	r28, 0x3d	; 61
    2c88:	de b7       	in	r29, 0x3e	; 62
    2c8a:	e8 e0       	ldi	r30, 0x08	; 8
    2c8c:	0c 94 8f 44 	jmp	0x891e	; 0x891e <__epilogue_restores__+0x14>

00002c90 <_ZL7panTune5Point>:
    2c90:	67 e0       	ldi	r22, 0x07	; 7
    2c92:	85 ed       	ldi	r24, 0xD5	; 213
    2c94:	93 e0       	ldi	r25, 0x03	; 3
    2c96:	0e 94 c7 15 	call	0x2b8e	; 0x2b8e <_ZL10print_listPK7Formatsh>
    2c9a:	08 95       	ret

00002c9c <_ZL8panFdata5Point>:
    2c9c:	cf 93       	push	r28
    2c9e:	df 93       	push	r29
    2ca0:	d8 2f       	mov	r29, r24
    2ca2:	c9 2f       	mov	r28, r25
    2ca4:	0e 94 3b 0a 	call	0x1476	; 0x1476 <_ZL12osd_setPanel5Point>
    2ca8:	88 e0       	ldi	r24, 0x08	; 8
    2caa:	0e 94 bd 08 	call	0x117a	; 0x117a <_ZN3OSD7write_SEh>
    2cae:	60 91 9e 06 	lds	r22, 0x069E	; 0x80069e <_ZL23total_flight_time_milis>
    2cb2:	70 91 9f 06 	lds	r23, 0x069F	; 0x80069f <_ZL23total_flight_time_milis+0x1>
    2cb6:	80 91 a0 06 	lds	r24, 0x06A0	; 0x8006a0 <_ZL23total_flight_time_milis+0x2>
    2cba:	90 91 a1 06 	lds	r25, 0x06A1	; 0x8006a1 <_ZL23total_flight_time_milis+0x3>
    2cbe:	40 e0       	ldi	r20, 0x00	; 0
    2cc0:	0e 94 8c 0f 	call	0x1f18	; 0x1f18 <_ZL12printTimeCnvPmh.isra.9>
    2cc4:	6a e0       	ldi	r22, 0x0A	; 10
    2cc6:	87 e5       	ldi	r24, 0x57	; 87
    2cc8:	92 e0       	ldi	r25, 0x02	; 2
    2cca:	0e 94 c7 15 	call	0x2b8e	; 0x2b8e <_ZL10print_listPK7Formatsh>
    2cce:	c6 ff       	sbrs	r28, 6
    2cd0:	05 c0       	rjmp	.+10     	; 0x2cdc <_ZL8panFdata5Point+0x40>
    2cd2:	6c 2f       	mov	r22, r28
    2cd4:	8a e0       	ldi	r24, 0x0A	; 10
    2cd6:	8d 0f       	add	r24, r29
    2cd8:	0e 94 85 08 	call	0x110a	; 0x110a <_ZN3OSD8setPanelEhh>
    2cdc:	83 e0       	ldi	r24, 0x03	; 3
    2cde:	0e 94 bd 08 	call	0x117a	; 0x117a <_ZN3OSD7write_SEh>
    2ce2:	65 e4       	ldi	r22, 0x45	; 69
    2ce4:	74 e0       	ldi	r23, 0x04	; 4
    2ce6:	80 e0       	ldi	r24, 0x00	; 0
    2ce8:	0e 94 cf 0f 	call	0x1f9e	; 0x1f9e <_ZL11print_coord5PointPf.isra.14>
    2cec:	0e 94 37 0a 	call	0x146e	; 0x146e <_ZL6osd_nlv>
    2cf0:	84 e0       	ldi	r24, 0x04	; 4
    2cf2:	0e 94 bd 08 	call	0x117a	; 0x117a <_ZN3OSD7write_SEh>
    2cf6:	69 e4       	ldi	r22, 0x49	; 73
    2cf8:	74 e0       	ldi	r23, 0x04	; 4
    2cfa:	80 e0       	ldi	r24, 0x00	; 0
    2cfc:	0e 94 cf 0f 	call	0x1f9e	; 0x1f9e <_ZL11print_coord5PointPf.isra.14>
    2d00:	df 91       	pop	r29
    2d02:	cf 91       	pop	r28
    2d04:	08 95       	ret

00002d06 <_ZL7panWarn5Point>:
    2d06:	a0 e0       	ldi	r26, 0x00	; 0
    2d08:	b0 e0       	ldi	r27, 0x00	; 0
    2d0a:	e9 e8       	ldi	r30, 0x89	; 137
    2d0c:	f6 e1       	ldi	r31, 0x16	; 22
    2d0e:	0c 94 73 44 	jmp	0x88e6	; 0x88e6 <__prologue_saves__+0x14>
    2d12:	09 2f       	mov	r16, r25
    2d14:	80 91 ba 03 	lds	r24, 0x03BA	; 0x8003ba <lflags+0x6>
    2d18:	88 23       	and	r24, r24
    2d1a:	09 f4       	brne	.+2      	; 0x2d1e <_ZL7panWarn5Point+0x18>
    2d1c:	e9 c0       	rjmp	.+466    	; 0x2ef0 <_ZL7panWarn5Point+0x1ea>
    2d1e:	10 92 ba 03 	sts	0x03BA, r1	; 0x8003ba <lflags+0x6>
    2d22:	c0 90 74 06 	lds	r12, 0x0674	; 0x800674 <_ZL12osd_airspeed>
    2d26:	d0 90 75 06 	lds	r13, 0x0675	; 0x800675 <_ZL12osd_airspeed+0x1>
    2d2a:	e0 90 76 06 	lds	r14, 0x0676	; 0x800676 <_ZL12osd_airspeed+0x2>
    2d2e:	f0 90 77 06 	lds	r15, 0x0677	; 0x800677 <_ZL12osd_airspeed+0x3>
    2d32:	0e 94 70 15 	call	0x2ae0	; 0x2ae0 <_Z12get_convertsv>
    2d36:	a7 01       	movw	r20, r14
    2d38:	96 01       	movw	r18, r12
    2d3a:	0e 94 6d 42 	call	0x84da	; 0x84da <__mulsf3>
    2d3e:	0e 94 12 41 	call	0x8224	; 0x8224 <__fixsfsi>
    2d42:	a0 91 bb 06 	lds	r26, 0x06BB	; 0x8006bb <_ZL10osd_vbat_A>
    2d46:	b0 91 bc 06 	lds	r27, 0x06BC	; 0x8006bc <_ZL10osd_vbat_A+0x1>
    2d4a:	80 91 c6 03 	lds	r24, 0x03C6	; 0x8003c6 <lflags+0x12>
    2d4e:	88 23       	and	r24, r24
    2d50:	49 f0       	breq	.+18     	; 0x2d64 <_ZL7panWarn5Point+0x5e>
    2d52:	81 e0       	ldi	r24, 0x01	; 1
    2d54:	90 e0       	ldi	r25, 0x00	; 0
    2d56:	20 91 8f 06 	lds	r18, 0x068F	; 0x80068f <_ZL12osd_fix_type>
    2d5a:	22 30       	cpi	r18, 0x02	; 2
    2d5c:	08 f0       	brcs	.+2      	; 0x2d60 <_ZL7panWarn5Point+0x5a>
    2d5e:	80 e0       	ldi	r24, 0x00	; 0
    2d60:	ec 01       	movw	r28, r24
    2d62:	02 c0       	rjmp	.+4      	; 0x2d68 <_ZL7panWarn5Point+0x62>
    2d64:	c0 e0       	ldi	r28, 0x00	; 0
    2d66:	d0 e0       	ldi	r29, 0x00	; 0
    2d68:	e0 91 5d 04 	lds	r30, 0x045D	; 0x80045d <sets+0x4>
    2d6c:	e1 11       	cpse	r30, r1
    2d6e:	0a c0       	rjmp	.+20     	; 0x2d84 <_ZL7panWarn5Point+0x7e>
    2d70:	20 91 61 04 	lds	r18, 0x0461	; 0x800461 <sets+0x8>
    2d74:	30 e0       	ldi	r19, 0x00	; 0
    2d76:	62 17       	cp	r22, r18
    2d78:	73 07       	cpc	r23, r19
    2d7a:	24 f4       	brge	.+8      	; 0x2d84 <_ZL7panWarn5Point+0x7e>
    2d7c:	80 91 bf 03 	lds	r24, 0x03BF	; 0x8003bf <lflags+0xb>
    2d80:	80 fd       	sbrc	r24, 0
    2d82:	c2 60       	ori	r28, 0x02	; 2
    2d84:	20 91 60 04 	lds	r18, 0x0460	; 0x800460 <sets+0x7>
    2d88:	22 23       	and	r18, r18
    2d8a:	29 f0       	breq	.+10     	; 0x2d96 <_ZL7panWarn5Point+0x90>
    2d8c:	30 e0       	ldi	r19, 0x00	; 0
    2d8e:	26 17       	cp	r18, r22
    2d90:	37 07       	cpc	r19, r23
    2d92:	0c f4       	brge	.+2      	; 0x2d96 <_ZL7panWarn5Point+0x90>
    2d94:	c4 60       	ori	r28, 0x04	; 4
    2d96:	30 91 b6 06 	lds	r19, 0x06B6	; 0x8006b6 <_ZL23osd_battery_remaining_A>
    2d9a:	20 91 b4 06 	lds	r18, 0x06B4	; 0x8006b4 <_ZL19max_battery_reading>
    2d9e:	40 91 62 04 	lds	r20, 0x0462	; 0x800462 <sets+0x9>
    2da2:	44 23       	and	r20, r20
    2da4:	69 f0       	breq	.+26     	; 0x2dc0 <_ZL7panWarn5Point+0xba>
    2da6:	cd 01       	movw	r24, r26
    2da8:	64 e6       	ldi	r22, 0x64	; 100
    2daa:	70 e0       	ldi	r23, 0x00	; 0
    2dac:	0e 94 8c 43 	call	0x8718	; 0x8718 <__udivmodhi4>
    2db0:	61 15       	cp	r22, r1
    2db2:	71 05       	cpc	r23, r1
    2db4:	29 f0       	breq	.+10     	; 0x2dc0 <_ZL7panWarn5Point+0xba>
    2db6:	84 2f       	mov	r24, r20
    2db8:	90 e0       	ldi	r25, 0x00	; 0
    2dba:	68 17       	cp	r22, r24
    2dbc:	79 07       	cpc	r23, r25
    2dbe:	e4 f0       	brlt	.+56     	; 0x2df8 <_ZL7panWarn5Point+0xf2>
    2dc0:	40 91 68 04 	lds	r20, 0x0468	; 0x800468 <sets+0xf>
    2dc4:	44 23       	and	r20, r20
    2dc6:	c9 f0       	breq	.+50     	; 0x2dfa <_ZL7panWarn5Point+0xf4>
    2dc8:	54 e6       	ldi	r21, 0x64	; 100
    2dca:	35 9f       	mul	r19, r21
    2dcc:	c0 01       	movw	r24, r0
    2dce:	11 24       	eor	r1, r1
    2dd0:	32 2f       	mov	r19, r18
    2dd2:	27 ff       	sbrs	r18, 7
    2dd4:	02 c0       	rjmp	.+4      	; 0x2dda <_ZL7panWarn5Point+0xd4>
    2dd6:	31 e0       	ldi	r19, 0x01	; 1
    2dd8:	32 0f       	add	r19, r18
    2dda:	35 95       	asr	r19
    2ddc:	83 0f       	add	r24, r19
    2dde:	91 1d       	adc	r25, r1
    2de0:	37 fd       	sbrc	r19, 7
    2de2:	9a 95       	dec	r25
    2de4:	62 2f       	mov	r22, r18
    2de6:	22 0f       	add	r18, r18
    2de8:	77 0b       	sbc	r23, r23
    2dea:	0e 94 a0 43 	call	0x8740	; 0x8740 <__divmodhi4>
    2dee:	84 2f       	mov	r24, r20
    2df0:	90 e0       	ldi	r25, 0x00	; 0
    2df2:	68 17       	cp	r22, r24
    2df4:	79 07       	cpc	r23, r25
    2df6:	0c f4       	brge	.+2      	; 0x2dfa <_ZL7panWarn5Point+0xf4>
    2df8:	c8 60       	ori	r28, 0x08	; 8
    2dfa:	80 91 67 04 	lds	r24, 0x0467	; 0x800467 <sets+0xe>
    2dfe:	80 fd       	sbrc	r24, 0
    2e00:	0b c0       	rjmp	.+22     	; 0x2e18 <_ZL7panWarn5Point+0x112>
    2e02:	80 91 69 04 	lds	r24, 0x0469	; 0x800469 <sets+0x10>
    2e06:	90 e0       	ldi	r25, 0x00	; 0
    2e08:	20 91 2b 04 	lds	r18, 0x042B	; 0x80042b <rssi_norm>
    2e0c:	30 91 2c 04 	lds	r19, 0x042C	; 0x80042c <rssi_norm+0x1>
    2e10:	28 17       	cp	r18, r24
    2e12:	39 07       	cpc	r19, r25
    2e14:	08 f4       	brcc	.+2      	; 0x2e18 <_ZL7panWarn5Point+0x112>
    2e16:	c0 61       	ori	r28, 0x10	; 16
    2e18:	80 91 f6 06 	lds	r24, 0x06F6	; 0x8006f6 <_ZL14vertical_speed>
    2e1c:	90 91 f7 06 	lds	r25, 0x06F7	; 0x8006f7 <_ZL14vertical_speed+0x1>
    2e20:	a0 91 f8 06 	lds	r26, 0x06F8	; 0x8006f8 <_ZL14vertical_speed+0x2>
    2e24:	b0 91 f9 06 	lds	r27, 0x06F9	; 0x8006f9 <_ZL14vertical_speed+0x3>
    2e28:	e1 30       	cpi	r30, 0x01	; 1
    2e2a:	a1 f4       	brne	.+40     	; 0x2e54 <_ZL7panWarn5Point+0x14e>
    2e2c:	10 91 61 04 	lds	r17, 0x0461	; 0x800461 <sets+0x8>
    2e30:	11 23       	and	r17, r17
    2e32:	81 f0       	breq	.+32     	; 0x2e54 <_ZL7panWarn5Point+0x14e>
    2e34:	bc 01       	movw	r22, r24
    2e36:	cd 01       	movw	r24, r26
    2e38:	9f 77       	andi	r25, 0x7F	; 127
    2e3a:	0e 94 12 41 	call	0x8224	; 0x8224 <__fixsfsi>
    2e3e:	cb 01       	movw	r24, r22
    2e40:	6a e0       	ldi	r22, 0x0A	; 10
    2e42:	70 e0       	ldi	r23, 0x00	; 0
    2e44:	0e 94 a0 43 	call	0x8740	; 0x8740 <__divmodhi4>
    2e48:	81 2f       	mov	r24, r17
    2e4a:	90 e0       	ldi	r25, 0x00	; 0
    2e4c:	86 17       	cp	r24, r22
    2e4e:	97 07       	cpc	r25, r23
    2e50:	0c f4       	brge	.+2      	; 0x2e54 <_ZL7panWarn5Point+0x14e>
    2e52:	c0 62       	ori	r28, 0x20	; 32
    2e54:	80 91 b9 06 	lds	r24, 0x06B9	; 0x8006b9 <_ZL10osd_vbat_B>
    2e58:	90 91 ba 06 	lds	r25, 0x06BA	; 0x8006ba <_ZL10osd_vbat_B+0x1>
    2e5c:	20 91 9b 04 	lds	r18, 0x049B	; 0x80049b <sets+0x42>
    2e60:	22 23       	and	r18, r18
    2e62:	69 f0       	breq	.+26     	; 0x2e7e <_ZL7panWarn5Point+0x178>
    2e64:	64 e6       	ldi	r22, 0x64	; 100
    2e66:	70 e0       	ldi	r23, 0x00	; 0
    2e68:	0e 94 8c 43 	call	0x8718	; 0x8718 <__udivmodhi4>
    2e6c:	61 15       	cp	r22, r1
    2e6e:	71 05       	cpc	r23, r1
    2e70:	31 f0       	breq	.+12     	; 0x2e7e <_ZL7panWarn5Point+0x178>
    2e72:	82 2f       	mov	r24, r18
    2e74:	90 e0       	ldi	r25, 0x00	; 0
    2e76:	68 17       	cp	r22, r24
    2e78:	79 07       	cpc	r23, r25
    2e7a:	0c f4       	brge	.+2      	; 0x2e7e <_ZL7panWarn5Point+0x178>
    2e7c:	c0 64       	ori	r28, 0x40	; 64
    2e7e:	06 ff       	sbrs	r16, 6
    2e80:	0e c0       	rjmp	.+28     	; 0x2e9e <_ZL7panWarn5Point+0x198>
    2e82:	80 91 5a 06 	lds	r24, 0x065A	; 0x80065a <_ZL16mav_fence_status>
    2e86:	81 30       	cpi	r24, 0x01	; 1
    2e88:	11 f4       	brne	.+4      	; 0x2e8e <_ZL7panWarn5Point+0x188>
    2e8a:	c0 68       	ori	r28, 0x80	; 128
    2e8c:	0d c0       	rjmp	.+26     	; 0x2ea8 <_ZL7panWarn5Point+0x1a2>
    2e8e:	82 30       	cpi	r24, 0x02	; 2
    2e90:	11 f4       	brne	.+4      	; 0x2e96 <_ZL7panWarn5Point+0x190>
    2e92:	d1 60       	ori	r29, 0x01	; 1
    2e94:	09 c0       	rjmp	.+18     	; 0x2ea8 <_ZL7panWarn5Point+0x1a2>
    2e96:	83 30       	cpi	r24, 0x03	; 3
    2e98:	11 f4       	brne	.+4      	; 0x2e9e <_ZL7panWarn5Point+0x198>
    2e9a:	d2 60       	ori	r29, 0x02	; 2
    2e9c:	05 c0       	rjmp	.+10     	; 0x2ea8 <_ZL7panWarn5Point+0x1a2>
    2e9e:	20 97       	sbiw	r28, 0x00	; 0
    2ea0:	19 f4       	brne	.+6      	; 0x2ea8 <_ZL7panWarn5Point+0x1a2>
    2ea2:	10 92 3b 03 	sts	0x033B, r1	; 0x80033b <warning>
    2ea6:	24 c0       	rjmp	.+72     	; 0x2ef0 <_ZL7panWarn5Point+0x1ea>
    2ea8:	90 91 3b 03 	lds	r25, 0x033B	; 0x80033b <warning>
    2eac:	81 e0       	ldi	r24, 0x01	; 1
    2eae:	91 11       	cpse	r25, r1
    2eb0:	89 0f       	add	r24, r25
    2eb2:	80 93 3b 03 	sts	0x033B, r24	; 0x80033b <warning>
    2eb6:	80 91 3b 03 	lds	r24, 0x033B	; 0x80033b <warning>
    2eba:	4f ef       	ldi	r20, 0xFF	; 255
    2ebc:	48 0f       	add	r20, r24
    2ebe:	21 e0       	ldi	r18, 0x01	; 1
    2ec0:	30 e0       	ldi	r19, 0x00	; 0
    2ec2:	02 c0       	rjmp	.+4      	; 0x2ec8 <_ZL7panWarn5Point+0x1c2>
    2ec4:	22 0f       	add	r18, r18
    2ec6:	33 1f       	adc	r19, r19
    2ec8:	4a 95       	dec	r20
    2eca:	e2 f7       	brpl	.-8      	; 0x2ec4 <_ZL7panWarn5Point+0x1be>
    2ecc:	8b 30       	cpi	r24, 0x0B	; 11
    2ece:	18 f0       	brcs	.+6      	; 0x2ed6 <_ZL7panWarn5Point+0x1d0>
    2ed0:	81 e0       	ldi	r24, 0x01	; 1
    2ed2:	21 e0       	ldi	r18, 0x01	; 1
    2ed4:	30 e0       	ldi	r19, 0x00	; 0
    2ed6:	a9 01       	movw	r20, r18
    2ed8:	4c 23       	and	r20, r28
    2eda:	5d 23       	and	r21, r29
    2edc:	45 2b       	or	r20, r21
    2ede:	21 f4       	brne	.+8      	; 0x2ee8 <_ZL7panWarn5Point+0x1e2>
    2ee0:	8f 5f       	subi	r24, 0xFF	; 255
    2ee2:	22 0f       	add	r18, r18
    2ee4:	33 1f       	adc	r19, r19
    2ee6:	f2 cf       	rjmp	.-28     	; 0x2ecc <_ZL7panWarn5Point+0x1c6>
    2ee8:	80 93 3b 03 	sts	0x033B, r24	; 0x80033b <warning>
    2eec:	89 17       	cp	r24, r25
    2eee:	c9 f2       	breq	.-78     	; 0x2ea2 <_ZL7panWarn5Point+0x19c>
    2ef0:	e0 91 3b 03 	lds	r30, 0x033B	; 0x80033b <warning>
    2ef4:	ee 23       	and	r30, r30
    2ef6:	49 f0       	breq	.+18     	; 0x2f0a <_ZL7panWarn5Point+0x204>
    2ef8:	f0 e0       	ldi	r31, 0x00	; 0
    2efa:	ee 0f       	add	r30, r30
    2efc:	ff 1f       	adc	r31, r31
    2efe:	e9 56       	subi	r30, 0x69	; 105
    2f00:	f6 4f       	sbci	r31, 0xF6	; 246
    2f02:	85 91       	lpm	r24, Z+
    2f04:	94 91       	lpm	r25, Z
    2f06:	0e 94 31 12 	call	0x2462	; 0x2462 <_Z11osd_print_SPKc>
    2f0a:	cd b7       	in	r28, 0x3d	; 61
    2f0c:	de b7       	in	r29, 0x3e	; 62
    2f0e:	e8 e0       	ldi	r30, 0x08	; 8
    2f10:	0c 94 8f 44 	jmp	0x891e	; 0x891e <__epilogue_restores__+0x14>

00002f14 <_Z9f_div1000f>:
    2f14:	2f e6       	ldi	r18, 0x6F	; 111
    2f16:	32 e1       	ldi	r19, 0x12	; 18
    2f18:	43 e8       	ldi	r20, 0x83	; 131
    2f1a:	5a e3       	ldi	r21, 0x3A	; 58
    2f1c:	0e 94 6d 42 	call	0x84da	; 0x84da <__mulsf3>
    2f20:	08 95       	ret

00002f22 <_ZL13panRadarScale5Point>:
    2f22:	cf 92       	push	r12
    2f24:	df 92       	push	r13
    2f26:	ef 92       	push	r14
    2f28:	ff 92       	push	r15
    2f2a:	cf 93       	push	r28
    2f2c:	df 93       	push	r29
    2f2e:	c0 91 0b 05 	lds	r28, 0x050B	; 0x80050b <_ZL10radar_zoom>
    2f32:	d0 91 0c 05 	lds	r29, 0x050C	; 0x80050c <_ZL10radar_zoom+0x1>
    2f36:	0e 94 d5 14 	call	0x29aa	; 0x29aa <_Z12get_converthv>
    2f3a:	6b 01       	movw	r12, r22
    2f3c:	7c 01       	movw	r14, r24
    2f3e:	2a ef       	ldi	r18, 0xFA	; 250
    2f40:	2c 9f       	mul	r18, r28
    2f42:	c0 01       	movw	r24, r0
    2f44:	2d 9f       	mul	r18, r29
    2f46:	90 0d       	add	r25, r0
    2f48:	11 24       	eor	r1, r1
    2f4a:	bc 01       	movw	r22, r24
    2f4c:	99 0f       	add	r25, r25
    2f4e:	88 0b       	sbc	r24, r24
    2f50:	99 0b       	sbc	r25, r25
    2f52:	0e 94 4a 41 	call	0x8294	; 0x8294 <__floatsisf>
    2f56:	9b 01       	movw	r18, r22
    2f58:	ac 01       	movw	r20, r24
    2f5a:	c7 01       	movw	r24, r14
    2f5c:	b6 01       	movw	r22, r12
    2f5e:	0e 94 6d 42 	call	0x84da	; 0x84da <__mulsf3>
    2f62:	e0 91 bd 06 	lds	r30, 0x06BD	; 0x8006bd <_ZL7measure>
    2f66:	f0 91 be 06 	lds	r31, 0x06BE	; 0x8006be <_ZL7measure+0x1>
    2f6a:	a8 97       	sbiw	r28, 0x28	; 40
    2f6c:	54 f0       	brlt	.+20     	; 0x2f82 <_ZL13panRadarScale5Point+0x60>
    2f6e:	3f 96       	adiw	r30, 0x0f	; 15
    2f70:	c4 91       	lpm	r28, Z
    2f72:	0e 94 8a 17 	call	0x2f14	; 0x2f14 <_Z9f_div1000f>
    2f76:	ab 01       	movw	r20, r22
    2f78:	bc 01       	movw	r22, r24
    2f7a:	2c 2f       	mov	r18, r28
    2f7c:	8c e2       	ldi	r24, 0x2C	; 44
    2f7e:	9a e0       	ldi	r25, 0x0A	; 10
    2f80:	06 c0       	rjmp	.+12     	; 0x2f8e <_ZL13panRadarScale5Point+0x6c>
    2f82:	39 96       	adiw	r30, 0x09	; 9
    2f84:	24 91       	lpm	r18, Z
    2f86:	ab 01       	movw	r20, r22
    2f88:	bc 01       	movw	r22, r24
    2f8a:	80 e2       	ldi	r24, 0x20	; 32
    2f8c:	9a e0       	ldi	r25, 0x0A	; 10
    2f8e:	0e 94 8e 0c 	call	0x191c	; 0x191c <_ZL12osd_printf_2PKcfh>
    2f92:	df 91       	pop	r29
    2f94:	cf 91       	pop	r28
    2f96:	ff 90       	pop	r15
    2f98:	ef 90       	pop	r14
    2f9a:	df 90       	pop	r13
    2f9c:	cf 90       	pop	r12
    2f9e:	08 95       	ret

00002fa0 <_ZL9printVoltjh>:
    2fa0:	cf 93       	push	r28
    2fa2:	df 93       	push	r29
    2fa4:	61 11       	cpse	r22, r1
    2fa6:	03 c0       	rjmp	.+6      	; 0x2fae <_ZL9printVoltjh+0xe>
    2fa8:	c2 e3       	ldi	r28, 0x32	; 50
    2faa:	da e0       	ldi	r29, 0x0A	; 10
    2fac:	02 c0       	rjmp	.+4      	; 0x2fb2 <_ZL9printVoltjh+0x12>
    2fae:	c6 e2       	ldi	r28, 0x26	; 38
    2fb0:	da e0       	ldi	r29, 0x0A	; 10
    2fb2:	bc 01       	movw	r22, r24
    2fb4:	80 e0       	ldi	r24, 0x00	; 0
    2fb6:	90 e0       	ldi	r25, 0x00	; 0
    2fb8:	0e 94 48 41 	call	0x8290	; 0x8290 <__floatunsisf>
    2fbc:	0e 94 8a 17 	call	0x2f14	; 0x2f14 <_Z9f_div1000f>
    2fc0:	ab 01       	movw	r20, r22
    2fc2:	bc 01       	movw	r22, r24
    2fc4:	2d e0       	ldi	r18, 0x0D	; 13
    2fc6:	ce 01       	movw	r24, r28
    2fc8:	0e 94 8e 0c 	call	0x191c	; 0x191c <_ZL12osd_printf_2PKcfh>
    2fcc:	df 91       	pop	r29
    2fce:	cf 91       	pop	r28
    2fd0:	08 95       	ret

00002fd2 <_ZL6panAlt5Point>:
    2fd2:	0f 93       	push	r16
    2fd4:	1f 93       	push	r17
    2fd6:	29 2f       	mov	r18, r25
    2fd8:	20 74       	andi	r18, 0x40	; 64
    2fda:	95 ff       	sbrs	r25, 5
    2fdc:	15 c0       	rjmp	.+42     	; 0x3008 <_ZL6panAlt5Point+0x36>
    2fde:	60 91 7c 06 	lds	r22, 0x067C	; 0x80067c <_ZL11osd_alt_mav>
    2fe2:	70 91 7d 06 	lds	r23, 0x067D	; 0x80067d <_ZL11osd_alt_mav+0x1>
    2fe6:	80 91 7e 06 	lds	r24, 0x067E	; 0x80067e <_ZL11osd_alt_mav+0x2>
    2fea:	90 91 7f 06 	lds	r25, 0x067F	; 0x80067f <_ZL11osd_alt_mav+0x3>
    2fee:	22 23       	and	r18, r18
    2ff0:	29 f1       	breq	.+74     	; 0x303c <_ZL6panAlt5Point+0x6a>
    2ff2:	20 91 78 06 	lds	r18, 0x0678	; 0x800678 <_ZL12home_alt_mav>
    2ff6:	30 91 79 06 	lds	r19, 0x0679	; 0x800679 <_ZL12home_alt_mav+0x1>
    2ffa:	40 91 7a 06 	lds	r20, 0x067A	; 0x80067a <_ZL12home_alt_mav+0x2>
    2ffe:	50 91 7b 06 	lds	r21, 0x067B	; 0x80067b <_ZL12home_alt_mav+0x3>
    3002:	0e 94 b7 3f 	call	0x7f6e	; 0x7f6e <__subsf3>
    3006:	1a c0       	rjmp	.+52     	; 0x303c <_ZL6panAlt5Point+0x6a>
    3008:	60 91 4d 04 	lds	r22, 0x044D	; 0x80044d <osd_pos+0x8>
    300c:	70 91 4e 04 	lds	r23, 0x044E	; 0x80044e <osd_pos+0x9>
    3010:	80 91 4f 04 	lds	r24, 0x044F	; 0x80044f <osd_pos+0xa>
    3014:	90 91 50 04 	lds	r25, 0x0450	; 0x800450 <osd_pos+0xb>
    3018:	22 23       	and	r18, r18
    301a:	61 f0       	breq	.+24     	; 0x3034 <_ZL6panAlt5Point+0x62>
    301c:	00 91 41 04 	lds	r16, 0x0441	; 0x800441 <osd_home+0x8>
    3020:	10 91 42 04 	lds	r17, 0x0442	; 0x800442 <osd_home+0x9>
    3024:	20 91 43 04 	lds	r18, 0x0443	; 0x800443 <osd_home+0xa>
    3028:	30 91 44 04 	lds	r19, 0x0444	; 0x800444 <osd_home+0xb>
    302c:	60 1b       	sub	r22, r16
    302e:	71 0b       	sbc	r23, r17
    3030:	82 0b       	sbc	r24, r18
    3032:	93 0b       	sbc	r25, r19
    3034:	0e 94 4a 41 	call	0x8294	; 0x8294 <__floatsisf>
    3038:	0e 94 8a 17 	call	0x2f14	; 0x2f14 <_Z9f_div1000f>
    303c:	0e 94 df 14 	call	0x29be	; 0x29be <_ZL13printFullDistf>
    3040:	1f 91       	pop	r17
    3042:	0f 91       	pop	r16
    3044:	08 95       	ret

00003046 <_Z17mav_message_starthh>:
    3046:	20 91 63 06 	lds	r18, 0x0663	; 0x800663 <_ZL7seconds>
    304a:	30 91 64 06 	lds	r19, 0x0664	; 0x800664 <_ZL7seconds+0x1>
    304e:	26 0f       	add	r18, r22
    3050:	31 1d       	adc	r19, r1
    3052:	30 93 f5 03 	sts	0x03F5, r19	; 0x8003f5 <mav_msg_ttl+0x1>
    3056:	20 93 f4 03 	sts	0x03F4, r18	; 0x8003f4 <mav_msg_ttl>
    305a:	80 93 f3 03 	sts	0x03F3, r24	; 0x8003f3 <mav_msg_len>
    305e:	80 91 31 04 	lds	r24, 0x0431	; 0x800431 <count02s>
    3062:	80 93 f1 03 	sts	0x03F1, r24	; 0x8003f1 <mav_msg_shift>
    3066:	08 95       	ret

00003068 <_Z15normalize_anglei>:
    3068:	97 ff       	sbrs	r25, 7
    306a:	03 c0       	rjmp	.+6      	; 0x3072 <_Z15normalize_anglei+0xa>
    306c:	88 59       	subi	r24, 0x98	; 152
    306e:	9e 4f       	sbci	r25, 0xFE	; 254
    3070:	08 95       	ret
    3072:	89 36       	cpi	r24, 0x69	; 105
    3074:	21 e0       	ldi	r18, 0x01	; 1
    3076:	92 07       	cpc	r25, r18
    3078:	14 f0       	brlt	.+4      	; 0x307e <_Z15normalize_anglei+0x16>
    307a:	88 56       	subi	r24, 0x68	; 104
    307c:	91 40       	sbci	r25, 0x01	; 1
    307e:	08 95       	ret

00003080 <_Z10time_sincePm>:
    3080:	cf 93       	push	r28
    3082:	df 93       	push	r29
    3084:	ec 01       	movw	r28, r24
    3086:	0e 94 0e 36 	call	0x6c1c	; 0x6c1c <millis>
    308a:	28 81       	ld	r18, Y
    308c:	39 81       	ldd	r19, Y+1	; 0x01
    308e:	cb 01       	movw	r24, r22
    3090:	82 1b       	sub	r24, r18
    3092:	93 0b       	sbc	r25, r19
    3094:	df 91       	pop	r29
    3096:	cf 91       	pop	r28
    3098:	08 95       	ret

0000309a <_Z15get_switch_timeh>:
    309a:	20 91 65 04 	lds	r18, 0x0465	; 0x800465 <sets+0xc>
    309e:	30 91 66 04 	lds	r19, 0x0466	; 0x800466 <sets+0xd>
    30a2:	81 50       	subi	r24, 0x01	; 1
    30a4:	18 f4       	brcc	.+6      	; 0x30ac <_Z15get_switch_timeh+0x12>
    30a6:	82 2f       	mov	r24, r18
    30a8:	8f 70       	andi	r24, 0x0F	; 15
    30aa:	08 95       	ret
    30ac:	94 e0       	ldi	r25, 0x04	; 4
    30ae:	36 95       	lsr	r19
    30b0:	27 95       	ror	r18
    30b2:	9a 95       	dec	r25
    30b4:	e1 f7       	brne	.-8      	; 0x30ae <_Z15get_switch_timeh+0x14>
    30b6:	f5 cf       	rjmp	.-22     	; 0x30a2 <_Z15get_switch_timeh+0x8>

000030b8 <_Z14doScreenSwitchv>:
    30b8:	81 e0       	ldi	r24, 0x01	; 1
    30ba:	80 93 b4 03 	sts	0x03B4, r24	; 0x8003b4 <lflags>
    30be:	88 e0       	ldi	r24, 0x08	; 8
    30c0:	e6 e4       	ldi	r30, 0x46	; 70
    30c2:	f6 e0       	ldi	r31, 0x06	; 6
    30c4:	df 01       	movw	r26, r30
    30c6:	1d 92       	st	X+, r1
    30c8:	8a 95       	dec	r24
    30ca:	e9 f7       	brne	.-6      	; 0x30c6 <_Z14doScreenSwitchv+0xe>
    30cc:	80 e0       	ldi	r24, 0x00	; 0
    30ce:	0e 94 92 14 	call	0x2924	; 0x2924 <_Z9readPanelh>
    30d2:	90 93 ad 03 	sts	0x03AD, r25	; 0x8003ad <screen_flags+0x1>
    30d6:	80 93 ac 03 	sts	0x03AC, r24	; 0x8003ac <screen_flags>
    30da:	08 95       	ret

000030dc <_Z12grad_to_secti>:
    30dc:	24 e0       	ldi	r18, 0x04	; 4
    30de:	88 0f       	add	r24, r24
    30e0:	99 1f       	adc	r25, r25
    30e2:	2a 95       	dec	r18
    30e4:	e1 f7       	brne	.-8      	; 0x30de <_Z12grad_to_secti+0x2>
    30e6:	8c 54       	subi	r24, 0x4C	; 76
    30e8:	9f 4f       	sbci	r25, 0xFF	; 255
    30ea:	68 e6       	ldi	r22, 0x68	; 104
    30ec:	71 e0       	ldi	r23, 0x01	; 1
    30ee:	0e 94 a0 43 	call	0x8740	; 0x8740 <__divmodhi4>
    30f2:	cb 01       	movw	r24, r22
    30f4:	01 96       	adiw	r24, 0x01	; 1
    30f6:	08 95       	ret

000030f8 <_ZL8panWPDis5Point>:
    30f8:	cf 92       	push	r12
    30fa:	df 92       	push	r13
    30fc:	ef 92       	push	r14
    30fe:	ff 92       	push	r15
    3100:	1f 93       	push	r17
    3102:	cf 93       	push	r28
    3104:	df 93       	push	r29
    3106:	c0 91 d1 06 	lds	r28, 0x06D1	; 0x8006d1 <_ZL12xtrack_error>
    310a:	d0 91 d2 06 	lds	r29, 0x06D2	; 0x8006d2 <_ZL12xtrack_error+0x1>
    310e:	c8 3e       	cpi	r28, 0xE8	; 232
    3110:	83 e0       	ldi	r24, 0x03	; 3
    3112:	d8 07       	cpc	r29, r24
    3114:	3c f4       	brge	.+14     	; 0x3124 <_ZL8panWPDis5Point+0x2c>
    3116:	c9 31       	cpi	r28, 0x19	; 25
    3118:	8c ef       	ldi	r24, 0xFC	; 252
    311a:	d8 07       	cpc	r29, r24
    311c:	2c f4       	brge	.+10     	; 0x3128 <_ZL8panWPDis5Point+0x30>
    311e:	c9 e1       	ldi	r28, 0x19	; 25
    3120:	dc ef       	ldi	r29, 0xFC	; 252
    3122:	02 c0       	rjmp	.+4      	; 0x3128 <_ZL8panWPDis5Point+0x30>
    3124:	c7 ee       	ldi	r28, 0xE7	; 231
    3126:	d3 e0       	ldi	r29, 0x03	; 3
    3128:	e0 91 bd 06 	lds	r30, 0x06BD	; 0x8006bd <_ZL7measure>
    312c:	f0 91 be 06 	lds	r31, 0x06BE	; 0x8006be <_ZL7measure+0x1>
    3130:	39 96       	adiw	r30, 0x09	; 9
    3132:	14 91       	lpm	r17, Z
    3134:	60 91 e3 06 	lds	r22, 0x06E3	; 0x8006e3 <_ZL9wp_number>
    3138:	70 e0       	ldi	r23, 0x00	; 0
    313a:	88 e3       	ldi	r24, 0x38	; 56
    313c:	9a e0       	ldi	r25, 0x0A	; 10
    313e:	0e 94 3f 0a 	call	0x147e	; 0x147e <_ZL12osd_printi_1PKci>
    3142:	0e 94 33 0a 	call	0x1466	; 0x1466 <_ZL9osd_blankv>
    3146:	60 91 e4 06 	lds	r22, 0x06E4	; 0x8006e4 <_ZL7wp_dist>
    314a:	70 91 e5 06 	lds	r23, 0x06E5	; 0x8006e5 <_ZL7wp_dist+0x1>
    314e:	80 e0       	ldi	r24, 0x00	; 0
    3150:	90 e0       	ldi	r25, 0x00	; 0
    3152:	0e 94 48 41 	call	0x8290	; 0x8290 <__floatunsisf>
    3156:	6b 01       	movw	r12, r22
    3158:	7c 01       	movw	r14, r24
    315a:	0e 94 d5 14 	call	0x29aa	; 0x29aa <_Z12get_converthv>
    315e:	a7 01       	movw	r20, r14
    3160:	96 01       	movw	r18, r12
    3162:	0e 94 6d 42 	call	0x84da	; 0x84da <__mulsf3>
    3166:	ab 01       	movw	r20, r22
    3168:	bc 01       	movw	r22, r24
    316a:	21 2f       	mov	r18, r17
    316c:	80 e2       	ldi	r24, 0x20	; 32
    316e:	9a e0       	ldi	r25, 0x0A	; 10
    3170:	0e 94 8e 0c 	call	0x191c	; 0x191c <_ZL12osd_printf_2PKcfh>
    3174:	0e 94 37 0a 	call	0x146e	; 0x146e <_ZL6osd_nlv>
    3178:	80 91 e6 06 	lds	r24, 0x06E6	; 0x8006e6 <_ZL17wp_target_bearing>
    317c:	90 91 e7 06 	lds	r25, 0x06E7	; 0x8006e7 <_ZL17wp_target_bearing+0x1>
    3180:	0e 94 34 18 	call	0x3068	; 0x3068 <_Z15normalize_anglei>
    3184:	20 91 80 06 	lds	r18, 0x0680	; 0x800680 <_ZL11osd_heading>
    3188:	30 91 81 06 	lds	r19, 0x0681	; 0x800681 <_ZL11osd_heading+0x1>
    318c:	82 1b       	sub	r24, r18
    318e:	93 0b       	sbc	r25, r19
    3190:	0e 94 6e 18 	call	0x30dc	; 0x30dc <_Z12grad_to_secti>
    3194:	0e 94 1a 0a 	call	0x1434	; 0x1434 <_ZL9showArrowh>
    3198:	8f e7       	ldi	r24, 0x7F	; 127
    319a:	93 e0       	ldi	r25, 0x03	; 3
    319c:	0e 94 31 12 	call	0x2462	; 0x2462 <_Z11osd_print_SPKc>
    31a0:	0e 94 d5 14 	call	0x29aa	; 0x29aa <_Z12get_converthv>
    31a4:	6b 01       	movw	r12, r22
    31a6:	7c 01       	movw	r14, r24
    31a8:	be 01       	movw	r22, r28
    31aa:	dd 0f       	add	r29, r29
    31ac:	88 0b       	sbc	r24, r24
    31ae:	99 0b       	sbc	r25, r25
    31b0:	0e 94 4a 41 	call	0x8294	; 0x8294 <__floatsisf>
    31b4:	a7 01       	movw	r20, r14
    31b6:	96 01       	movw	r18, r12
    31b8:	0e 94 6d 42 	call	0x84da	; 0x84da <__mulsf3>
    31bc:	ab 01       	movw	r20, r22
    31be:	bc 01       	movw	r22, r24
    31c0:	21 2f       	mov	r18, r17
    31c2:	80 e2       	ldi	r24, 0x20	; 32
    31c4:	9a e0       	ldi	r25, 0x0A	; 10
    31c6:	0e 94 8e 0c 	call	0x191c	; 0x191c <_ZL12osd_printf_2PKcfh>
    31ca:	df 91       	pop	r29
    31cc:	cf 91       	pop	r28
    31ce:	1f 91       	pop	r17
    31d0:	ff 90       	pop	r15
    31d2:	ef 90       	pop	r14
    31d4:	df 90       	pop	r13
    31d6:	cf 90       	pop	r12
    31d8:	08 95       	ret

000031da <_ZL6panCOG5Point>:
    31da:	80 91 8d 06 	lds	r24, 0x068D	; 0x80068d <_ZL7osd_cog>
    31de:	90 91 8e 06 	lds	r25, 0x068E	; 0x80068e <_ZL7osd_cog+0x1>
    31e2:	c2 96       	adiw	r24, 0x32	; 50
    31e4:	64 e6       	ldi	r22, 0x64	; 100
    31e6:	70 e0       	ldi	r23, 0x00	; 0
    31e8:	0e 94 8c 43 	call	0x8718	; 0x8718 <__udivmodhi4>
    31ec:	20 91 80 06 	lds	r18, 0x0680	; 0x800680 <_ZL11osd_heading>
    31f0:	30 91 81 06 	lds	r19, 0x0681	; 0x800681 <_ZL11osd_heading+0x1>
    31f4:	cb 01       	movw	r24, r22
    31f6:	82 1b       	sub	r24, r18
    31f8:	93 0b       	sbc	r25, r19
    31fa:	0e 94 34 18 	call	0x3068	; 0x3068 <_Z15normalize_anglei>
    31fe:	84 5b       	subi	r24, 0xB4	; 180
    3200:	91 09       	sbc	r25, r1
    3202:	90 93 8c 06 	sts	0x068C, r25	; 0x80068c <_ZL10off_course+0x1>
    3206:	80 93 8b 06 	sts	0x068B, r24	; 0x80068b <_ZL10off_course>
    320a:	0e 94 6e 18 	call	0x30dc	; 0x30dc <_Z12grad_to_secti>
    320e:	88 5f       	subi	r24, 0xF8	; 248
    3210:	0e 94 1a 0a 	call	0x1434	; 0x1434 <_ZL9showArrowh>
    3214:	60 91 8b 06 	lds	r22, 0x068B	; 0x80068b <_ZL10off_course>
    3218:	70 91 8c 06 	lds	r23, 0x068C	; 0x80068c <_ZL10off_course+0x1>
    321c:	80 e3       	ldi	r24, 0x30	; 48
    321e:	93 e0       	ldi	r25, 0x03	; 3
    3220:	0e 94 3f 0a 	call	0x147e	; 0x147e <_ZL12osd_printi_1PKci>
    3224:	08 95       	ret

00003226 <_Z8calc_maxRff>:
    3226:	cf 92       	push	r12
    3228:	df 92       	push	r13
    322a:	ef 92       	push	r14
    322c:	ff 92       	push	r15
    322e:	cf 93       	push	r28
    3230:	df 93       	push	r29
    3232:	ec 01       	movw	r28, r24
    3234:	6a 01       	movw	r12, r20
    3236:	7b 01       	movw	r14, r22
    3238:	9a 01       	movw	r18, r20
    323a:	ab 01       	movw	r20, r22
    323c:	68 81       	ld	r22, Y
    323e:	79 81       	ldd	r23, Y+1	; 0x01
    3240:	8a 81       	ldd	r24, Y+2	; 0x02
    3242:	9b 81       	ldd	r25, Y+3	; 0x03
    3244:	0e 94 96 40 	call	0x812c	; 0x812c <__cmpsf2>
    3248:	87 ff       	sbrs	r24, 7
    324a:	04 c0       	rjmp	.+8      	; 0x3254 <_Z8calc_maxRff+0x2e>
    324c:	c8 82       	st	Y, r12
    324e:	d9 82       	std	Y+1, r13	; 0x01
    3250:	ea 82       	std	Y+2, r14	; 0x02
    3252:	fb 82       	std	Y+3, r15	; 0x03
    3254:	df 91       	pop	r29
    3256:	cf 91       	pop	r28
    3258:	ff 90       	pop	r15
    325a:	ef 90       	pop	r14
    325c:	df 90       	pop	r13
    325e:	cf 90       	pop	r12
    3260:	08 95       	ret

00003262 <_Z6filterRffh>:
    3262:	8f 92       	push	r8
    3264:	9f 92       	push	r9
    3266:	af 92       	push	r10
    3268:	bf 92       	push	r11
    326a:	cf 92       	push	r12
    326c:	df 92       	push	r13
    326e:	ef 92       	push	r14
    3270:	ff 92       	push	r15
    3272:	0f 93       	push	r16
    3274:	1f 93       	push	r17
    3276:	cf 93       	push	r28
    3278:	8c 01       	movw	r16, r24
    327a:	4a 01       	movw	r8, r20
    327c:	5b 01       	movw	r10, r22
    327e:	c2 2f       	mov	r28, r18
    3280:	fc 01       	movw	r30, r24
    3282:	c0 80       	ld	r12, Z
    3284:	d1 80       	ldd	r13, Z+1	; 0x01
    3286:	e2 80       	ldd	r14, Z+2	; 0x02
    3288:	f3 80       	ldd	r15, Z+3	; 0x03
    328a:	20 e0       	ldi	r18, 0x00	; 0
    328c:	30 e0       	ldi	r19, 0x00	; 0
    328e:	a9 01       	movw	r20, r18
    3290:	c7 01       	movw	r24, r14
    3292:	b6 01       	movw	r22, r12
    3294:	0e 94 96 40 	call	0x812c	; 0x812c <__cmpsf2>
    3298:	88 23       	and	r24, r24
    329a:	11 f0       	breq	.+4      	; 0x32a0 <_Z6filterRffh+0x3e>
    329c:	c2 30       	cpi	r28, 0x02	; 2
    329e:	30 f4       	brcc	.+12     	; 0x32ac <_Z6filterRffh+0x4a>
    32a0:	f8 01       	movw	r30, r16
    32a2:	80 82       	st	Z, r8
    32a4:	91 82       	std	Z+1, r9	; 0x01
    32a6:	a2 82       	std	Z+2, r10	; 0x02
    32a8:	b3 82       	std	Z+3, r11	; 0x03
    32aa:	1d c0       	rjmp	.+58     	; 0x32e6 <_Z6filterRffh+0x84>
    32ac:	a7 01       	movw	r20, r14
    32ae:	96 01       	movw	r18, r12
    32b0:	c5 01       	movw	r24, r10
    32b2:	b4 01       	movw	r22, r8
    32b4:	0e 94 b7 3f 	call	0x7f6e	; 0x7f6e <__subsf3>
    32b8:	4b 01       	movw	r8, r22
    32ba:	5c 01       	movw	r10, r24
    32bc:	6c 2f       	mov	r22, r28
    32be:	70 e0       	ldi	r23, 0x00	; 0
    32c0:	80 e0       	ldi	r24, 0x00	; 0
    32c2:	90 e0       	ldi	r25, 0x00	; 0
    32c4:	0e 94 4a 41 	call	0x8294	; 0x8294 <__floatsisf>
    32c8:	9b 01       	movw	r18, r22
    32ca:	ac 01       	movw	r20, r24
    32cc:	c5 01       	movw	r24, r10
    32ce:	b4 01       	movw	r22, r8
    32d0:	0e 94 a0 40 	call	0x8140	; 0x8140 <__divsf3>
    32d4:	a7 01       	movw	r20, r14
    32d6:	96 01       	movw	r18, r12
    32d8:	0e 94 b8 3f 	call	0x7f70	; 0x7f70 <__addsf3>
    32dc:	f8 01       	movw	r30, r16
    32de:	60 83       	st	Z, r22
    32e0:	71 83       	std	Z+1, r23	; 0x01
    32e2:	82 83       	std	Z+2, r24	; 0x02
    32e4:	93 83       	std	Z+3, r25	; 0x03
    32e6:	cf 91       	pop	r28
    32e8:	1f 91       	pop	r17
    32ea:	0f 91       	pop	r16
    32ec:	ff 90       	pop	r15
    32ee:	ef 90       	pop	r14
    32f0:	df 90       	pop	r13
    32f2:	cf 90       	pop	r12
    32f4:	bf 90       	pop	r11
    32f6:	af 90       	pop	r10
    32f8:	9f 90       	pop	r9
    32fa:	8f 90       	pop	r8
    32fc:	08 95       	ret

000032fe <_ZL9panBatt_B5Point>:
    32fe:	cf 93       	push	r28
    3300:	df 93       	push	r29
    3302:	97 fd       	sbrc	r25, 7
    3304:	29 c0       	rjmp	.+82     	; 0x3358 <_ZL9panBatt_B5Point+0x5a>
    3306:	c9 2f       	mov	r28, r25
    3308:	91 e0       	ldi	r25, 0x01	; 1
    330a:	90 93 d0 03 	sts	0x03D0, r25	; 0x8003d0 <lflags+0x1c>
    330e:	9c 2f       	mov	r25, r28
    3310:	0e 94 1d 14 	call	0x283a	; 0x283a <_Z14get_alt_filter5Point>
    3314:	d8 2f       	mov	r29, r24
    3316:	60 91 b9 06 	lds	r22, 0x06B9	; 0x8006b9 <_ZL10osd_vbat_B>
    331a:	70 91 ba 06 	lds	r23, 0x06BA	; 0x8006ba <_ZL10osd_vbat_B+0x1>
    331e:	80 e0       	ldi	r24, 0x00	; 0
    3320:	90 e0       	ldi	r25, 0x00	; 0
    3322:	0e 94 48 41 	call	0x8290	; 0x8290 <__floatunsisf>
    3326:	ab 01       	movw	r20, r22
    3328:	bc 01       	movw	r22, r24
    332a:	2d 2f       	mov	r18, r29
    332c:	8b ee       	ldi	r24, 0xEB	; 235
    332e:	94 e0       	ldi	r25, 0x04	; 4
    3330:	0e 94 31 19 	call	0x3262	; 0x3262 <_Z6filterRffh>
    3334:	c2 95       	swap	r28
    3336:	c1 70       	andi	r28, 0x01	; 1
    3338:	60 91 eb 04 	lds	r22, 0x04EB	; 0x8004eb <_ZZL9panBatt_B5PointE4volt>
    333c:	70 91 ec 04 	lds	r23, 0x04EC	; 0x8004ec <_ZZL9panBatt_B5PointE4volt+0x1>
    3340:	80 91 ed 04 	lds	r24, 0x04ED	; 0x8004ed <_ZZL9panBatt_B5PointE4volt+0x2>
    3344:	90 91 ee 04 	lds	r25, 0x04EE	; 0x8004ee <_ZZL9panBatt_B5PointE4volt+0x3>
    3348:	0e 94 19 41 	call	0x8232	; 0x8232 <__fixunssfsi>
    334c:	dc 01       	movw	r26, r24
    334e:	cb 01       	movw	r24, r22
    3350:	6c 2f       	mov	r22, r28
    3352:	0e 94 d0 17 	call	0x2fa0	; 0x2fa0 <_ZL9printVoltjh>
    3356:	08 c0       	rjmp	.+16     	; 0x3368 <_ZL9panBatt_B5Point+0x6a>
    3358:	81 e0       	ldi	r24, 0x01	; 1
    335a:	90 91 9b 04 	lds	r25, 0x049B	; 0x80049b <sets+0x42>
    335e:	91 11       	cpse	r25, r1
    3360:	01 c0       	rjmp	.+2      	; 0x3364 <_ZL9panBatt_B5Point+0x66>
    3362:	80 e0       	ldi	r24, 0x00	; 0
    3364:	80 93 d0 03 	sts	0x03D0, r24	; 0x8003d0 <lflags+0x1c>
    3368:	df 91       	pop	r29
    336a:	cf 91       	pop	r28
    336c:	08 95       	ret

0000336e <_ZL9panBatt_A5Point>:
    336e:	cf 93       	push	r28
    3370:	df 93       	push	r29
    3372:	c9 2f       	mov	r28, r25
    3374:	0e 94 1d 14 	call	0x283a	; 0x283a <_Z14get_alt_filter5Point>
    3378:	d8 2f       	mov	r29, r24
    337a:	60 91 bb 06 	lds	r22, 0x06BB	; 0x8006bb <_ZL10osd_vbat_A>
    337e:	70 91 bc 06 	lds	r23, 0x06BC	; 0x8006bc <_ZL10osd_vbat_A+0x1>
    3382:	80 e0       	ldi	r24, 0x00	; 0
    3384:	90 e0       	ldi	r25, 0x00	; 0
    3386:	0e 94 48 41 	call	0x8290	; 0x8290 <__floatunsisf>
    338a:	ab 01       	movw	r20, r22
    338c:	bc 01       	movw	r22, r24
    338e:	2d 2f       	mov	r18, r29
    3390:	87 ee       	ldi	r24, 0xE7	; 231
    3392:	94 e0       	ldi	r25, 0x04	; 4
    3394:	0e 94 31 19 	call	0x3262	; 0x3262 <_Z6filterRffh>
    3398:	c2 95       	swap	r28
    339a:	c1 70       	andi	r28, 0x01	; 1
    339c:	60 91 e7 04 	lds	r22, 0x04E7	; 0x8004e7 <_ZZL9panBatt_A5PointE4volt>
    33a0:	70 91 e8 04 	lds	r23, 0x04E8	; 0x8004e8 <_ZZL9panBatt_A5PointE4volt+0x1>
    33a4:	80 91 e9 04 	lds	r24, 0x04E9	; 0x8004e9 <_ZZL9panBatt_A5PointE4volt+0x2>
    33a8:	90 91 ea 04 	lds	r25, 0x04EA	; 0x8004ea <_ZZL9panBatt_A5PointE4volt+0x3>
    33ac:	0e 94 19 41 	call	0x8232	; 0x8232 <__fixunssfsi>
    33b0:	dc 01       	movw	r26, r24
    33b2:	cb 01       	movw	r24, r22
    33b4:	6c 2f       	mov	r22, r28
    33b6:	0e 94 d0 17 	call	0x2fa0	; 0x2fa0 <_ZL9printVoltjh>
    33ba:	df 91       	pop	r29
    33bc:	cf 91       	pop	r28
    33be:	08 95       	ret

000033c0 <_ZL8panCur_A5Point>:
    33c0:	cf 93       	push	r28
    33c2:	df 93       	push	r29
    33c4:	c9 2f       	mov	r28, r25
    33c6:	0e 94 1d 14 	call	0x283a	; 0x283a <_Z14get_alt_filter5Point>
    33ca:	d8 2f       	mov	r29, r24
    33cc:	60 91 b7 06 	lds	r22, 0x06B7	; 0x8006b7 <_ZL10osd_curr_A>
    33d0:	70 91 b8 06 	lds	r23, 0x06B8	; 0x8006b8 <_ZL10osd_curr_A+0x1>
    33d4:	07 2e       	mov	r0, r23
    33d6:	00 0c       	add	r0, r0
    33d8:	88 0b       	sbc	r24, r24
    33da:	99 0b       	sbc	r25, r25
    33dc:	0e 94 4a 41 	call	0x8294	; 0x8294 <__floatsisf>
    33e0:	ab 01       	movw	r20, r22
    33e2:	bc 01       	movw	r22, r24
    33e4:	2d 2f       	mov	r18, r29
    33e6:	8f ee       	ldi	r24, 0xEF	; 239
    33e8:	94 e0       	ldi	r25, 0x04	; 4
    33ea:	0e 94 31 19 	call	0x3262	; 0x3262 <_Z6filterRffh>
    33ee:	c4 fd       	sbrc	r28, 4
    33f0:	03 c0       	rjmp	.+6      	; 0x33f8 <_ZL8panCur_A5Point+0x38>
    33f2:	c2 e3       	ldi	r28, 0x32	; 50
    33f4:	da e0       	ldi	r29, 0x0A	; 10
    33f6:	02 c0       	rjmp	.+4      	; 0x33fc <_ZL8panCur_A5Point+0x3c>
    33f8:	c6 e2       	ldi	r28, 0x26	; 38
    33fa:	da e0       	ldi	r29, 0x0A	; 10
    33fc:	2a e0       	ldi	r18, 0x0A	; 10
    33fe:	37 ed       	ldi	r19, 0xD7	; 215
    3400:	43 e2       	ldi	r20, 0x23	; 35
    3402:	5c e3       	ldi	r21, 0x3C	; 60
    3404:	60 91 ef 04 	lds	r22, 0x04EF	; 0x8004ef <_ZZL8panCur_A5PointE4curr>
    3408:	70 91 f0 04 	lds	r23, 0x04F0	; 0x8004f0 <_ZZL8panCur_A5PointE4curr+0x1>
    340c:	80 91 f1 04 	lds	r24, 0x04F1	; 0x8004f1 <_ZZL8panCur_A5PointE4curr+0x2>
    3410:	90 91 f2 04 	lds	r25, 0x04F2	; 0x8004f2 <_ZZL8panCur_A5PointE4curr+0x3>
    3414:	0e 94 6d 42 	call	0x84da	; 0x84da <__mulsf3>
    3418:	ab 01       	movw	r20, r22
    341a:	bc 01       	movw	r22, r24
    341c:	2e e0       	ldi	r18, 0x0E	; 14
    341e:	ce 01       	movw	r24, r28
    3420:	0e 94 8e 0c 	call	0x191c	; 0x191c <_ZL12osd_printf_2PKcfh>
    3424:	df 91       	pop	r29
    3426:	cf 91       	pop	r28
    3428:	08 95       	ret

0000342a <_ZL12panWindSpeed5Point>:
    342a:	a0 e0       	ldi	r26, 0x00	; 0
    342c:	b0 e0       	ldi	r27, 0x00	; 0
    342e:	eb e1       	ldi	r30, 0x1B	; 27
    3430:	fa e1       	ldi	r31, 0x1A	; 26
    3432:	0c 94 73 44 	jmp	0x88e6	; 0x88e6 <__prologue_saves__+0x14>
    3436:	d9 2f       	mov	r29, r25
    3438:	80 91 6e 06 	lds	r24, 0x066E	; 0x80066e <_ZL17osd_winddirection>
    343c:	90 91 6f 06 	lds	r25, 0x066F	; 0x80066f <_ZL17osd_winddirection+0x1>
    3440:	0e 94 34 18 	call	0x3068	; 0x3068 <_Z15normalize_anglei>
    3444:	8c 01       	movw	r16, r24
    3446:	c0 90 70 06 	lds	r12, 0x0670	; 0x800670 <_ZL13osd_windspeed>
    344a:	d0 90 71 06 	lds	r13, 0x0671	; 0x800671 <_ZL13osd_windspeed+0x1>
    344e:	e0 90 72 06 	lds	r14, 0x0672	; 0x800672 <_ZL13osd_windspeed+0x2>
    3452:	f0 90 73 06 	lds	r15, 0x0673	; 0x800673 <_ZL13osd_windspeed+0x3>
    3456:	24 e6       	ldi	r18, 0x64	; 100
    3458:	b7 01       	movw	r22, r14
    345a:	a6 01       	movw	r20, r12
    345c:	8a ef       	ldi	r24, 0xFA	; 250
    345e:	96 e0       	ldi	r25, 0x06	; 6
    3460:	0e 94 31 19 	call	0x3262	; 0x3262 <_Z6filterRffh>
    3464:	d6 fb       	bst	r29, 6
    3466:	cc 27       	eor	r28, r28
    3468:	c0 f9       	bld	r28, 0
    346a:	2c 2f       	mov	r18, r28
    346c:	b7 01       	movw	r22, r14
    346e:	a6 01       	movw	r20, r12
    3470:	84 e4       	ldi	r24, 0x44	; 68
    3472:	9a e0       	ldi	r25, 0x0A	; 10
    3474:	0e 94 79 15 	call	0x2af2	; 0x2af2 <_ZL13printSpeedCnvPKcPfh.isra.21>
    3478:	0e 94 37 0a 	call	0x146e	; 0x146e <_ZL6osd_nlv>
    347c:	20 91 80 06 	lds	r18, 0x0680	; 0x800680 <_ZL11osd_heading>
    3480:	30 91 81 06 	lds	r19, 0x0681	; 0x800681 <_ZL11osd_heading+0x1>
    3484:	c8 01       	movw	r24, r16
    3486:	82 1b       	sub	r24, r18
    3488:	93 0b       	sbc	r25, r19
    348a:	0e 94 6e 18 	call	0x30dc	; 0x30dc <_Z12grad_to_secti>
    348e:	d5 fd       	sbrc	r29, 5
    3490:	02 c0       	rjmp	.+4      	; 0x3496 <_ZL12panWindSpeed5Point+0x6c>
    3492:	90 e0       	ldi	r25, 0x00	; 0
    3494:	01 c0       	rjmp	.+2      	; 0x3498 <_ZL12panWindSpeed5Point+0x6e>
    3496:	98 e0       	ldi	r25, 0x08	; 8
    3498:	89 0f       	add	r24, r25
    349a:	0e 94 1a 0a 	call	0x1434	; 0x1434 <_ZL9showArrowh>
    349e:	40 91 fa 06 	lds	r20, 0x06FA	; 0x8006fa <_ZL17nor_osd_windspeed>
    34a2:	50 91 fb 06 	lds	r21, 0x06FB	; 0x8006fb <_ZL17nor_osd_windspeed+0x1>
    34a6:	60 91 fc 06 	lds	r22, 0x06FC	; 0x8006fc <_ZL17nor_osd_windspeed+0x2>
    34aa:	70 91 fd 06 	lds	r23, 0x06FD	; 0x8006fd <_ZL17nor_osd_windspeed+0x3>
    34ae:	2c 2f       	mov	r18, r28
    34b0:	83 e8       	ldi	r24, 0x83	; 131
    34b2:	93 e0       	ldi	r25, 0x03	; 3
    34b4:	0e 94 79 15 	call	0x2af2	; 0x2af2 <_ZL13printSpeedCnvPKcPfh.isra.21>
    34b8:	cd b7       	in	r28, 0x3d	; 61
    34ba:	de b7       	in	r29, 0x3e	; 62
    34bc:	e8 e0       	ldi	r30, 0x08	; 8
    34be:	0c 94 8f 44 	jmp	0x891e	; 0x891e <__epilogue_restores__+0x14>

000034c2 <_ZL7panRSSI5Point>:
    34c2:	cf 93       	push	r28
    34c4:	df 93       	push	r29
    34c6:	c9 2f       	mov	r28, r25
    34c8:	0e 94 1d 14 	call	0x283a	; 0x283a <_Z14get_alt_filter5Point>
    34cc:	d8 2f       	mov	r29, r24
    34ce:	60 91 2b 04 	lds	r22, 0x042B	; 0x80042b <rssi_norm>
    34d2:	70 91 2c 04 	lds	r23, 0x042C	; 0x80042c <rssi_norm+0x1>
    34d6:	80 e0       	ldi	r24, 0x00	; 0
    34d8:	90 e0       	ldi	r25, 0x00	; 0
    34da:	0e 94 48 41 	call	0x8290	; 0x8290 <__floatunsisf>
    34de:	ab 01       	movw	r20, r22
    34e0:	bc 01       	movw	r22, r24
    34e2:	2d 2f       	mov	r18, r29
    34e4:	83 ef       	ldi	r24, 0xF3	; 243
    34e6:	94 e0       	ldi	r25, 0x04	; 4
    34e8:	0e 94 31 19 	call	0x3262	; 0x3262 <_Z6filterRffh>
    34ec:	60 91 f3 04 	lds	r22, 0x04F3	; 0x8004f3 <_ZZL7panRSSI5PointE4rssi>
    34f0:	70 91 f4 04 	lds	r23, 0x04F4	; 0x8004f4 <_ZZL7panRSSI5PointE4rssi+0x1>
    34f4:	80 91 f5 04 	lds	r24, 0x04F5	; 0x8004f5 <_ZZL7panRSSI5PointE4rssi+0x2>
    34f8:	90 91 f6 04 	lds	r25, 0x04F6	; 0x8004f6 <_ZZL7panRSSI5PointE4rssi+0x3>
    34fc:	0e 94 12 41 	call	0x8224	; 0x8224 <__fixsfsi>
    3500:	8c e3       	ldi	r24, 0x3C	; 60
    3502:	9a e0       	ldi	r25, 0x0A	; 10
    3504:	0e 94 3f 0a 	call	0x147e	; 0x147e <_ZL12osd_printi_1PKci>
    3508:	80 91 67 04 	lds	r24, 0x0467	; 0x800467 <sets+0xe>
    350c:	80 fd       	sbrc	r24, 0
    350e:	03 c0       	rjmp	.+6      	; 0x3516 <_ZL7panRSSI5Point+0x54>
    3510:	c4 fd       	sbrc	r28, 4
    3512:	0e 94 2f 0a 	call	0x145e	; 0x145e <_ZL11osd_percentv>
    3516:	df 91       	pop	r29
    3518:	cf 91       	pop	r28
    351a:	08 95       	ret

0000351c <_ZL11calc_energyv>:
    351c:	8f 92       	push	r8
    351e:	9f 92       	push	r9
    3520:	af 92       	push	r10
    3522:	bf 92       	push	r11
    3524:	cf 92       	push	r12
    3526:	df 92       	push	r13
    3528:	ef 92       	push	r14
    352a:	ff 92       	push	r15
    352c:	60 91 b7 06 	lds	r22, 0x06B7	; 0x8006b7 <_ZL10osd_curr_A>
    3530:	70 91 b8 06 	lds	r23, 0x06B8	; 0x8006b8 <_ZL10osd_curr_A+0x1>
    3534:	07 2e       	mov	r0, r23
    3536:	00 0c       	add	r0, r0
    3538:	88 0b       	sbc	r24, r24
    353a:	99 0b       	sbc	r25, r25
    353c:	0e 94 4a 41 	call	0x8294	; 0x8294 <__floatsisf>
    3540:	6b 01       	movw	r12, r22
    3542:	7c 01       	movw	r14, r24
    3544:	80 90 6a 06 	lds	r8, 0x066A	; 0x80066a <_ZL15osd_groundspeed>
    3548:	90 90 6b 06 	lds	r9, 0x066B	; 0x80066b <_ZL15osd_groundspeed+0x1>
    354c:	a0 90 6c 06 	lds	r10, 0x066C	; 0x80066c <_ZL15osd_groundspeed+0x2>
    3550:	b0 90 6d 06 	lds	r11, 0x066D	; 0x80066d <_ZL15osd_groundspeed+0x3>
    3554:	0e 94 70 15 	call	0x2ae0	; 0x2ae0 <_Z12get_convertsv>
    3558:	a5 01       	movw	r20, r10
    355a:	94 01       	movw	r18, r8
    355c:	0e 94 6d 42 	call	0x84da	; 0x84da <__mulsf3>
    3560:	9b 01       	movw	r18, r22
    3562:	ac 01       	movw	r20, r24
    3564:	c7 01       	movw	r24, r14
    3566:	b6 01       	movw	r22, r12
    3568:	0e 94 a0 40 	call	0x8140	; 0x8140 <__divsf3>
    356c:	20 e0       	ldi	r18, 0x00	; 0
    356e:	30 e0       	ldi	r19, 0x00	; 0
    3570:	40 e2       	ldi	r20, 0x20	; 32
    3572:	51 e4       	ldi	r21, 0x41	; 65
    3574:	0e 94 6d 42 	call	0x84da	; 0x84da <__mulsf3>
    3578:	ab 01       	movw	r20, r22
    357a:	bc 01       	movw	r22, r24
    357c:	24 e6       	ldi	r18, 0x64	; 100
    357e:	87 e0       	ldi	r24, 0x07	; 7
    3580:	95 e0       	ldi	r25, 0x05	; 5
    3582:	0e 94 31 19 	call	0x3262	; 0x3262 <_Z6filterRffh>
    3586:	ff 90       	pop	r15
    3588:	ef 90       	pop	r14
    358a:	df 90       	pop	r13
    358c:	cf 90       	pop	r12
    358e:	bf 90       	pop	r11
    3590:	af 90       	pop	r10
    3592:	9f 90       	pop	r9
    3594:	8f 90       	pop	r8
    3596:	08 95       	ret

00003598 <_ZL6panEff5Point>:
    3598:	a0 e0       	ldi	r26, 0x00	; 0
    359a:	b0 e0       	ldi	r27, 0x00	; 0
    359c:	e2 ed       	ldi	r30, 0xD2	; 210
    359e:	fa e1       	ldi	r31, 0x1A	; 26
    35a0:	0c 94 6f 44 	jmp	0x88de	; 0x88de <__prologue_saves__+0xc>
    35a4:	20 91 bb 03 	lds	r18, 0x03BB	; 0x8003bb <lflags+0x7>
    35a8:	22 23       	and	r18, r18
    35aa:	09 f4       	brne	.+2      	; 0x35ae <_ZL6panEff5Point+0x16>
    35ac:	32 c1       	rjmp	.+612    	; 0x3812 <_ZL6panEff5Point+0x27a>
    35ae:	c8 2f       	mov	r28, r24
    35b0:	96 ff       	sbrs	r25, 6
    35b2:	13 c0       	rjmp	.+38     	; 0x35da <_ZL6panEff5Point+0x42>
    35b4:	20 e0       	ldi	r18, 0x00	; 0
    35b6:	30 e0       	ldi	r19, 0x00	; 0
    35b8:	a9 01       	movw	r20, r18
    35ba:	60 91 6a 06 	lds	r22, 0x066A	; 0x80066a <_ZL15osd_groundspeed>
    35be:	70 91 6b 06 	lds	r23, 0x066B	; 0x80066b <_ZL15osd_groundspeed+0x1>
    35c2:	80 91 6c 06 	lds	r24, 0x066C	; 0x80066c <_ZL15osd_groundspeed+0x2>
    35c6:	90 91 6d 06 	lds	r25, 0x066D	; 0x80066d <_ZL15osd_groundspeed+0x3>
    35ca:	0e 94 96 40 	call	0x812c	; 0x812c <__cmpsf2>
    35ce:	88 23       	and	r24, r24
    35d0:	09 f4       	brne	.+2      	; 0x35d4 <_ZL6panEff5Point+0x3c>
    35d2:	1f c1       	rjmp	.+574    	; 0x3812 <_ZL6panEff5Point+0x27a>
    35d4:	0e 94 8e 1a 	call	0x351c	; 0x351c <_ZL11calc_energyv>
    35d8:	21 c0       	rjmp	.+66     	; 0x361c <_ZL6panEff5Point+0x84>
    35da:	80 91 5d 04 	lds	r24, 0x045D	; 0x80045d <sets+0x4>
    35de:	81 11       	cpse	r24, r1
    35e0:	ca c0       	rjmp	.+404    	; 0x3776 <_ZL6panEff5Point+0x1de>
    35e2:	20 e0       	ldi	r18, 0x00	; 0
    35e4:	30 e0       	ldi	r19, 0x00	; 0
    35e6:	a9 01       	movw	r20, r18
    35e8:	60 91 6a 06 	lds	r22, 0x066A	; 0x80066a <_ZL15osd_groundspeed>
    35ec:	70 91 6b 06 	lds	r23, 0x066B	; 0x80066b <_ZL15osd_groundspeed+0x1>
    35f0:	80 91 6c 06 	lds	r24, 0x066C	; 0x80066c <_ZL15osd_groundspeed+0x2>
    35f4:	90 91 6d 06 	lds	r25, 0x066D	; 0x80066d <_ZL15osd_groundspeed+0x3>
    35f8:	0e 94 96 40 	call	0x812c	; 0x812c <__cmpsf2>
    35fc:	88 23       	and	r24, r24
    35fe:	09 f4       	brne	.+2      	; 0x3602 <_ZL6panEff5Point+0x6a>
    3600:	08 c1       	rjmp	.+528    	; 0x3812 <_ZL6panEff5Point+0x27a>
    3602:	0e 94 8e 1a 	call	0x351c	; 0x351c <_ZL11calc_energyv>
    3606:	90 91 65 06 	lds	r25, 0x0665	; 0x800665 <_ZL12osd_throttle>
    360a:	80 91 be 03 	lds	r24, 0x03BE	; 0x8003be <lflags+0xa>
    360e:	93 30       	cpi	r25, 0x03	; 3
    3610:	48 f0       	brcs	.+18     	; 0x3624 <_ZL6panEff5Point+0x8c>
    3612:	81 11       	cpse	r24, r1
    3614:	03 c0       	rjmp	.+6      	; 0x361c <_ZL6panEff5Point+0x84>
    3616:	81 e0       	ldi	r24, 0x01	; 1
    3618:	80 93 be 03 	sts	0x03BE, r24	; 0x8003be <lflags+0xa>
    361c:	8c 2f       	mov	r24, r28
    361e:	0e 94 aa 0f 	call	0x1f54	; 0x1f54 <_ZL12print_energy5Point.isra.12>
    3622:	f7 c0       	rjmp	.+494    	; 0x3812 <_ZL6panEff5Point+0x27a>
    3624:	88 23       	and	r24, r24
    3626:	11 f1       	breq	.+68     	; 0x366c <_ZL6panEff5Point+0xd4>
    3628:	80 91 d7 06 	lds	r24, 0x06D7	; 0x8006d7 <_ZL15osd_alt_to_home>
    362c:	90 91 d8 06 	lds	r25, 0x06D8	; 0x8006d8 <_ZL15osd_alt_to_home+0x1>
    3630:	a0 91 d9 06 	lds	r26, 0x06D9	; 0x8006d9 <_ZL15osd_alt_to_home+0x2>
    3634:	b0 91 da 06 	lds	r27, 0x06DA	; 0x8006da <_ZL15osd_alt_to_home+0x3>
    3638:	80 93 95 06 	sts	0x0695, r24	; 0x800695 <_ZL4palt>
    363c:	90 93 96 06 	sts	0x0696, r25	; 0x800696 <_ZL4palt+0x1>
    3640:	a0 93 97 06 	sts	0x0697, r26	; 0x800697 <_ZL4palt+0x2>
    3644:	b0 93 98 06 	sts	0x0698, r27	; 0x800698 <_ZL4palt+0x3>
    3648:	80 91 f2 06 	lds	r24, 0x06F2	; 0x8006f2 <_ZL13trip_distance>
    364c:	90 91 f3 06 	lds	r25, 0x06F3	; 0x8006f3 <_ZL13trip_distance+0x1>
    3650:	a0 91 f4 06 	lds	r26, 0x06F4	; 0x8006f4 <_ZL13trip_distance+0x2>
    3654:	b0 91 f5 06 	lds	r27, 0x06F5	; 0x8006f5 <_ZL13trip_distance+0x3>
    3658:	80 93 f7 04 	sts	0x04F7, r24	; 0x8004f7 <_ZZL6panEff5PointE9ddistance>
    365c:	90 93 f8 04 	sts	0x04F8, r25	; 0x8004f8 <_ZZL6panEff5PointE9ddistance+0x1>
    3660:	a0 93 f9 04 	sts	0x04F9, r26	; 0x8004f9 <_ZZL6panEff5PointE9ddistance+0x2>
    3664:	b0 93 fa 04 	sts	0x04FA, r27	; 0x8004fa <_ZZL6panEff5PointE9ddistance+0x3>
    3668:	10 92 be 03 	sts	0x03BE, r1	; 0x8003be <lflags+0xa>
    366c:	2d ec       	ldi	r18, 0xCD	; 205
    366e:	3c ec       	ldi	r19, 0xCC	; 204
    3670:	4c e4       	ldi	r20, 0x4C	; 76
    3672:	5d eb       	ldi	r21, 0xBD	; 189
    3674:	60 91 91 06 	lds	r22, 0x0691	; 0x800691 <_ZL9osd_climb>
    3678:	70 91 92 06 	lds	r23, 0x0692	; 0x800692 <_ZL9osd_climb+0x1>
    367c:	80 91 93 06 	lds	r24, 0x0693	; 0x800693 <_ZL9osd_climb+0x2>
    3680:	90 91 94 06 	lds	r25, 0x0694	; 0x800694 <_ZL9osd_climb+0x3>
    3684:	0e 94 96 40 	call	0x812c	; 0x812c <__cmpsf2>
    3688:	87 ff       	sbrs	r24, 7
    368a:	63 c0       	rjmp	.+198    	; 0x3752 <_ZL6panEff5Point+0x1ba>
    368c:	c0 90 d7 06 	lds	r12, 0x06D7	; 0x8006d7 <_ZL15osd_alt_to_home>
    3690:	d0 90 d8 06 	lds	r13, 0x06D8	; 0x8006d8 <_ZL15osd_alt_to_home+0x1>
    3694:	e0 90 d9 06 	lds	r14, 0x06D9	; 0x8006d9 <_ZL15osd_alt_to_home+0x2>
    3698:	f0 90 da 06 	lds	r15, 0x06DA	; 0x8006da <_ZL15osd_alt_to_home+0x3>
    369c:	20 91 f7 04 	lds	r18, 0x04F7	; 0x8004f7 <_ZZL6panEff5PointE9ddistance>
    36a0:	30 91 f8 04 	lds	r19, 0x04F8	; 0x8004f8 <_ZZL6panEff5PointE9ddistance+0x1>
    36a4:	40 91 f9 04 	lds	r20, 0x04F9	; 0x8004f9 <_ZZL6panEff5PointE9ddistance+0x2>
    36a8:	50 91 fa 04 	lds	r21, 0x04FA	; 0x8004fa <_ZZL6panEff5PointE9ddistance+0x3>
    36ac:	60 91 f2 06 	lds	r22, 0x06F2	; 0x8006f2 <_ZL13trip_distance>
    36b0:	70 91 f3 06 	lds	r23, 0x06F3	; 0x8006f3 <_ZL13trip_distance+0x1>
    36b4:	80 91 f4 06 	lds	r24, 0x06F4	; 0x8006f4 <_ZL13trip_distance+0x2>
    36b8:	90 91 f5 06 	lds	r25, 0x06F5	; 0x8006f5 <_ZL13trip_distance+0x3>
    36bc:	0e 94 b7 3f 	call	0x7f6e	; 0x7f6e <__subsf3>
    36c0:	4b 01       	movw	r8, r22
    36c2:	5c 01       	movw	r10, r24
    36c4:	a7 01       	movw	r20, r14
    36c6:	96 01       	movw	r18, r12
    36c8:	60 91 95 06 	lds	r22, 0x0695	; 0x800695 <_ZL4palt>
    36cc:	70 91 96 06 	lds	r23, 0x0696	; 0x800696 <_ZL4palt+0x1>
    36d0:	80 91 97 06 	lds	r24, 0x0697	; 0x800697 <_ZL4palt+0x2>
    36d4:	90 91 98 06 	lds	r25, 0x0698	; 0x800698 <_ZL4palt+0x3>
    36d8:	0e 94 b7 3f 	call	0x7f6e	; 0x7f6e <__subsf3>
    36dc:	9b 01       	movw	r18, r22
    36de:	ac 01       	movw	r20, r24
    36e0:	c7 01       	movw	r24, r14
    36e2:	b6 01       	movw	r22, r12
    36e4:	0e 94 a0 40 	call	0x8140	; 0x8140 <__divsf3>
    36e8:	9b 01       	movw	r18, r22
    36ea:	ac 01       	movw	r20, r24
    36ec:	c5 01       	movw	r24, r10
    36ee:	b4 01       	movw	r22, r8
    36f0:	0e 94 6d 42 	call	0x84da	; 0x84da <__mulsf3>
    36f4:	6b 01       	movw	r12, r22
    36f6:	7c 01       	movw	r14, r24
    36f8:	0e 94 d5 14 	call	0x29aa	; 0x29aa <_Z12get_converthv>
    36fc:	9b 01       	movw	r18, r22
    36fe:	ac 01       	movw	r20, r24
    3700:	c7 01       	movw	r24, r14
    3702:	b6 01       	movw	r22, r12
    3704:	0e 94 6d 42 	call	0x84da	; 0x84da <__mulsf3>
    3708:	6b 01       	movw	r12, r22
    370a:	7c 01       	movw	r14, r24
    370c:	0e 94 12 41 	call	0x8224	; 0x8224 <__fixsfsi>
    3710:	cb 01       	movw	r24, r22
    3712:	60 31       	cpi	r22, 0x10	; 16
    3714:	77 42       	sbci	r23, 0x27	; 39
    3716:	24 f4       	brge	.+8      	; 0x3720 <_ZL6panEff5Point+0x188>
    3718:	18 16       	cp	r1, r24
    371a:	19 06       	cpc	r1, r25
    371c:	44 f0       	brlt	.+16     	; 0x372e <_ZL6panEff5Point+0x196>
    371e:	79 c0       	rjmp	.+242    	; 0x3812 <_ZL6panEff5Point+0x27a>
    3720:	c1 2c       	mov	r12, r1
    3722:	8c e3       	ldi	r24, 0x3C	; 60
    3724:	d8 2e       	mov	r13, r24
    3726:	8c e1       	ldi	r24, 0x1C	; 28
